ccopy_reg
_reconstructor
p0
(cigraph.layout
Layout
p1
c__builtin__
object
p2
Ntp3
Rp4
(dp5
S'_coords'
p6
(lp7
(lp8
F-0.2947760365187341
aF20.09667767374279
aF-2.355913029483873
aa(lp9
F-0.9243709404433937
aF20.103355971162426
aF-2.92165950563939
aa(lp10
F-0.6767615001507885
aF19.70205142274291
aF-2.6008699038779546
aa(lp11
F-0.45505362046417935
aF19.76949002353413
aF-2.886425473079567
aa(lp12
F-0.5579604784762128
aF19.79246687667415
aF-2.8844884895344225
aa(lp13
F-0.7210723420921316
aF19.434968340176823
aF-3.4851086612372257
aa(lp14
F-0.6970711813885168
aF20.12613240887691
aF-2.9008912028141296
aa(lp15
F-0.9636837622815924
aF19.492299333576643
aF-3.2126873079788316
aa(lp16
F-0.06852074618688779
aF19.659770574815244
aF-3.1856822430666076
aa(lp17
F-0.5253682674669992
aF19.521337923782816
aF-2.9954133653798225
aa(lp18
F-0.4471041820545582
aF19.580844691856203
aF-2.791421596663858
aa(lp19
F-0.884203545045304
aF19.714576653368567
aF-3.7816219509224314
aa(lp20
F-0.35831122108298014
aF20.226341775556445
aF-3.5020911253996325
aa(lp21
F-0.6245927499535766
aF19.68128387062387
aF-3.8908331291080853
aa(lp22
F-0.5717495094808149
aF19.6671532983666
aF-3.556215311927058
aa(lp23
F-0.43956253516966853
aF19.410548655268695
aF-3.657322220961244
aa(lp24
F-0.1548411844794365
aF19.35099229652873
aF-3.4322736291575766
aa(lp25
F-1.0562309604421845
aF19.705250661224003
aF-3.417620754081238
aa(lp26
F-0.4077740422856699
aF19.2176353291278
aF-3.472732602684819
aa(lp27
F-0.1309535003340357
aF19.603659584286167
aF-3.464985463756084
aa(lp28
F-0.7802461889676905
aF19.251580010178472
aF-3.7620947525315085
aa(lp29
F-1.0870555100710495
aF19.481330208101816
aF-3.6824360506325835
aa(lp30
F-0.3313418469309464
aF19.666917604803142
aF-3.836908590439057
aa(lp31
F0.12419795073358073
aF20.12572691570982
aF-3.3872583964819607
aa(lp32
F-0.017180700011306147
aF19.212061302403075
aF-3.5337425503867097
aa(lp33
F-1.1728655256425977
aF19.18626123301462
aF-3.566450331640465
aa(lp34
F-1.3131485587429195
aF20.319099532569403
aF-3.032831591513004
aa(lp35
F-0.2559548685030483
aF18.801803198848024
aF-3.5839260392287406
aa(lp36
F-1.1030635066944314
aF19.443598991778725
aF-4.13518750714021
aa(lp37
F-1.4578362149335111
aF20.053868610981443
aF-3.0055616150991407
aa(lp38
F-0.15850357875201998
aF19.455382783283014
aF-2.9612864589501755
aa(lp39
F-0.8610466919226476
aF19.745107226234122
aF-3.1644591582378387
aa(lp40
F-0.6539165251577795
aF18.781378517821583
aF-3.7220586834020852
aa(lp41
F-0.2218252158961499
aF18.845101606552728
aF-2.7030120300342313
aa(lp42
F-1.1773056911705564
aF20.133181179015473
aF-2.6210638336911223
aa(lp43
F-1.0082373356811176
aF20.351806153751806
aF-3.2747458202200637
aa(lp44
F-1.0741557937806652
aF18.888741846955583
aF-3.3734670128943827
aa(lp45
F-1.4609352258334163
aF19.58849758371037
aF-2.291114239046489
aa(lp46
F-1.1888069882200336
aF20.63539034733186
aF-3.6854134296325345
aa(lp47
F-1.0836488807172584
aF19.04115056095364
aF-2.9561520774831735
aa(lp48
F-1.6709230072270922
aF19.98337596578313
aF-2.715503292809819
aa(lp49
F-0.1820315125325391
aF19.224579328526104
aF-2.5619707161273917
aa(lp50
F-0.6548414324031165
aF20.333309357958758
aF-3.291718851707232
aa(lp51
F-2.126136623698912
aF20.155196652058386
aF-3.659730650840394
aa(lp52
F-1.2472973076808367
aF19.298117007534405
aF-3.859594394898453
aa(lp53
F-1.317087556565388
aF19.4789064808662
aF-3.064650079530402
aa(lp54
F-0.9555873009448083
aF19.70273683212815
aF-2.051422360559675
aa(lp55
F1.4194793531719017
aF19.001023595550784
aF-4.929216035615616
aa(lp56
F1.6344267207333627
aF18.92227251598652
aF-4.4991214723535045
aa(lp57
F0.013515927393397215
aF19.878140201345516
aF-4.911127117191568
aa(lp58
F0.3755720975942323
aF19.42669290433143
aF-4.691985062226623
aa(lp59
F-0.6860728457215405
aF18.805268413529134
aF-4.6450948313624
aa(lp60
F0.9341631931488359
aF19.315835526007874
aF-4.137049148253282
aa(lp61
F0.37743968038106224
aF19.252248731250635
aF-4.024602239889367
aa(lp62
F-1.456852705356257
aF18.983236404634635
aF-3.5141054535957994
aa(lp63
F-0.8715243034310737
aF19.533207670213677
aF-4.793092291523413
aa(lp64
F-0.4079256736862863
aF18.589955611098492
aF-4.283138598481906
aa(lp65
F-0.20055287215593004
aF17.764673247712434
aF-4.868069204011514
aa(lp66
F0.29128038959750757
aF19.380194025913593
aF-3.1809002007069074
aa(lp67
F-0.19562649957736641
aF19.772658624794378
aF-4.609467974734244
aa(lp68
F-0.8847517931430096
aF19.632325075798644
aF-3.5823245286174443
aa(lp69
F-0.5011387846647408
aF18.949772764286394
aF-4.652651667315954
aa(lp70
F-0.46030653616754913
aF18.402388655722618
aF-3.8234400293248023
aa(lp71
F0.10622074921603851
aF18.90623884685531
aF-3.7723740530826864
aa(lp72
F0.3216029921187501
aF18.623221065896548
aF-4.522791133216901
aa(lp73
F-0.6070246034523176
aF19.814632077548286
aF-4.647917423329023
aa(lp74
F7.521386174647826
aF25.508870116663285
aF11.033867430675638
aa(lp75
F2.6362027006432704
aF20.53951538790964
aF-5.112576818634044
aa(lp76
F-0.9674024834598347
aF19.39507881259752
aF-2.9073033751544823
aa(lp77
F-0.04827011078697417
aF20.37852979948723
aF-3.3824731336174025
aa(lp78
F-0.651569377754682
aF19.191392316984
aF-3.175525542398045
aa(lp79
F-0.45952554005965063
aF19.14089942865255
aF-3.0666689307217947
aa(lp80
F-0.949248490634788
aF19.616411513125026
aF-2.8954929708474344
aa(lp81
F-0.18786646448386754
aF19.462423432835774
aF-1.9289865172166245
aa(lp82
F-0.7904892507086685
aF20.592327906738614
aF-2.0179050629558426
aa(lp83
F-0.9882218568585088
aF21.54541653379911
aF-2.789508802042617
aa(lp84
F0.7485943675746549
aF19.608712760285197
aF-4.446089174696998
aa(lp85
F0.02723744517606827
aF19.804357249366575
aF-3.8655423667199065
aa(lp86
F-0.36335845506750025
aF20.395792904987434
aF-3.1322274426131167
aa(lp87
F-0.7595035185995967
aF20.735872409593295
aF-4.09189243449398
aa(lp88
F-0.47839383828347726
aF19.273680174519683
aF-2.1820790170853517
aa(lp89
F-1.8655003284093328
aF19.18506719063746
aF-3.209202517636416
aa(lp90
F-0.6601049079250313
aF18.714658776269253
aF-2.8439881185446176
aa(lp91
F-0.8216819391618574
aF21.150290319112674
aF-2.251600689887717
aa(lp92
F-1.0563422703845309
aF19.808975031299777
aF-2.581787434907403
aa(lp93
F-1.3443274310903122
aF19.78260231860811
aF-2.1218805725727545
aa(lp94
F-1.3743563585874652
aF20.25569290670772
aF-3.608416743494953
aa(lp95
F-1.9482772861780913
aF21.1879033770918
aF-2.735114597035834
aa(lp96
F-1.2603084158388513
aF20.04097402019842
aF-2.441623017883602
aa(lp97
F-0.5610998665811899
aF20.439343297050634
aF-3.0123421857494477
aa(lp98
F0.5441956117132012
aF19.324072872474154
aF-5.5521724489324775
aa(lp99
F-1.1436447880153349
aF18.646710404118863
aF-4.221152098736963
aa(lp100
F-0.5630923284708107
aF19.321892365899966
aF-4.1130769449337885
aa(lp101
F-0.689714551484036
aF17.485189910882536
aF-4.396366400089317
aa(lp102
F0.436889204958087
aF18.089492505207776
aF-4.579835027380586
aa(lp103
F-0.9955034757460767
aF19.74548588326555
aF-4.550406760317609
aa(lp104
F0.06087302939682762
aF18.0856788362916
aF-4.156707618571356
aa(lp105
F-1.0109196343841422
aF18.648309415312003
aF-3.880755861822138
aa(lp106
F-0.4844097999305597
aF18.4991554039686
aF-5.268754949610307
aa(lp107
F-2.109339772599122
aF16.758979594987178
aF-6.842153823497363
aa(lp108
F-2.114548993090005
aF16.908580757712006
aF-7.182348309982579
aa(lp109
F-1.6658192235471287
aF17.03498890763866
aF-7.360668976458547
aa(lp110
F-2.662855266714247
aF17.21031743254791
aF-6.977760279125914
aa(lp111
F-1.858181014873468
aF17.014273253230776
aF-7.1917995472645355
aa(lp112
F-1.8000536132239084
aF18.77278521556225
aF-6.537662449221675
aa(lp113
F-3.9566701932029456
aF18.129885528218338
aF-6.029128046015649
aa(lp114
F-2.067995945284255
aF18.862296742474935
aF-5.490305785780836
aa(lp115
F-1.588249731331606
aF17.825028072243008
aF-3.9632603387768683
aa(lp116
F0.6141929420074591
aF20.087592922589486
aF-3.4613276814673894
aa(lp117
F-0.47529312662727385
aF18.8510430191794
aF-4.447953757413588
aa(lp118
F0.1537747252691032
aF20.739871433730112
aF-4.709587583070412
aa(lp119
F0.7663174821286606
aF19.834299037098337
aF-3.344968867022071
aa(lp120
F-2.3619255010750395
aF17.968746519710187
aF-6.414732933509438
aa(lp121
F-2.342104295187528
aF16.301285339671118
aF-7.698217911791119
aa(lp122
F-1.645609145345578
aF16.105639534994513
aF-7.169454747554253
aa(lp123
F-1.4224968389178703
aF15.843131011064576
aF-6.920567890993157
aa(lp124
F-1.6078989559735695
aF16.506518154033994
aF-7.94658559151713
aa(lp125
F-0.9374512560719265
aF16.421593466780177
aF-6.367385108935009
aa(lp126
F-2.097262281250495
aF15.819553581226344
aF-6.140072732469393
aa(lp127
F-1.2237778978053853
aF17.010733643666843
aF-7.654325361485617
aa(lp128
F-2.0133091906483447
aF16.396146834454147
aF-7.8813032834605306
aa(lp129
F-2.093818391441383
aF17.36524190274129
aF-8.427349263129178
aa(lp130
F0.19339527802244136
aF14.684068579334435
aF-8.798413218094405
aa(lp131
F0.2539378366797481
aF13.960314193882281
aF-8.245203995610364
aa(lp132
F0.4994919640463518
aF13.487842030160525
aF-9.142172749909756
aa(lp133
F1.16953332685772
aF13.648479580782885
aF-8.950038895119018
aa(lp134
F1.1608163670340221
aF13.294862004914767
aF-8.795590830919243
aa(lp135
F0.49339740674090826
aF14.950708451329497
aF-8.587959985084735
aa(lp136
F0.25121893661417544
aF13.755115751903743
aF-9.44296149995744
aa(lp137
F0.9645219050187073
aF12.637706525554629
aF-9.412547116791405
aa(lp138
F0.12305988582163144
aF20.522030806415657
aF-4.093782744046862
aa(lp139
F-1.0203372297015787
aF17.666379724787674
aF-3.575733925728433
aa(lp140
F-0.31735689310031595
aF19.745421960404972
aF-4.106642257637262
aa(lp141
F-1.5331693578386079
aF17.47621778355327
aF-3.6617253251314525
aa(lp142
F-2.7689517911145196
aF19.039993976631138
aF-4.585063200572172
aa(lp143
F-0.7001052036437885
aF18.635827122913287
aF-3.288380524232456
aa(lp144
F0.5723556193928061
aF20.35786998893358
aF-3.352533314688772
aa(lp145
F-1.9298247949398413
aF20.168452694763022
aF-4.144809131571857
aa(lp146
F-1.5429949384350117
aF19.918603942158633
aF-3.410868661235367
aa(lp147
F-0.247501524804023
aF19.080614954158005
aF-1.7959896340086268
aa(lp148
F-0.3166411319210709
aF20.80101226450977
aF-2.6460031449359915
aa(lp149
F-1.2469798864401227
aF19.29015870759514
aF-2.4376295433044066
aa(lp150
F-0.9970806202826509
aF19.601280682396684
aF-1.4335043903366942
aa(lp151
F-2.118500758953443
aF19.9609566270559
aF-3.207314298735685
aa(lp152
F0.11151150241739535
aF19.953145223278824
aF-2.8449499827144513
aa(lp153
F-1.0889120638973047
aF18.701891315811242
aF-2.679595546850835
aa(lp154
F-0.3842351002710133
aF20.247770947865394
aF-1.7266428266030014
aa(lp155
F-0.5367697441899449
aF20.47936996868483
aF-3.6593324224433585
aa(lp156
F0.5889970830774979
aF19.216863771635545
aF-3.3803327478582967
aa(lp157
F0.6405334980197022
aF19.874947058730726
aF-2.9521982386759413
aa(lp158
F0.7689346717961706
aF19.544838541335345
aF-2.926492238947816
aa(lp159
F0.535341172713031
aF19.661343034006443
aF-2.170075318202623
aa(lp160
F-1.0894745182658903
aF19.35774061030019
aF-1.8759856277536904
aa(lp161
F-1.6641328658166272
aF20.363027090228716
aF-3.390274432657025
aa(lp162
F-0.22597395206410098
aF18.818090318842934
aF-3.0206402517764253
aa(lp163
F0.5408087739449624
aF19.543449033600368
aF-1.9245239357618045
aa(lp164
F-1.8072474718911666
aF19.601368597294197
aF-2.763682268251877
aa(lp165
F0.2639013524665685
aF21.66579868558409
aF-4.185951092186686
aa(lp166
F-0.6823829901218305
aF20.834524075936383
aF-3.8115143000665177
aa(lp167
F-1.4122754940141253
aF20.41170911373875
aF-3.437214107618778
aa(lp168
F0.1580749435989451
aF20.681812487057414
aF-3.8118602924322595
aa(lp169
F-0.7404523914726429
aF18.939070113113107
aF-2.5467091974808187
aa(lp170
F-1.5907252847243578
aF19.092262465322477
aF-3.18813062583153
aa(lp171
F-1.329236023481642
aF18.735228350900712
aF-3.0622110696940945
aa(lp172
F-1.5924913574425001
aF18.461386429320974
aF-2.7313356426362914
aa(lp173
F-1.144225311634731
aF18.87926679007286
aF-4.219197994484967
aa(lp174
F-0.3133218284926162
aF20.59244769844347
aF-4.405703770134085
aa(lp175
F-1.4290441390411714
aF19.59202288700252
aF-3.6394009001439342
aa(lp176
F-2.1271450023468628
aF19.60430043129639
aF-2.7475400333329185
aa(lp177
F-1.719663527888858
aF19.19171957773788
aF-1.9622240918064133
aa(lp178
F0.6621768435995861
aF20.243056547424974
aF-4.436923109929892
aa(lp179
F-0.6814516490240703
aF18.420001831404008
aF-4.233221207260628
aa(lp180
F-1.101320843654247
aF17.641107707574626
aF-4.2634821215735785
aa(lp181
F-0.5656146447700574
aF17.187482041763857
aF-3.4564992483850876
aa(lp182
F-1.7695589370648157
aF18.368143209474304
aF-3.947265278523239
aa(lp183
F0.011011434364953995
aF16.995742706486475
aF-3.6005503026699412
aa(lp184
F-1.1546026236933427
aF16.962761047887565
aF-2.236100798464518
aa(lp185
F-1.1257844729207402
aF16.62104475012968
aF-3.8405091237653157
aa(lp186
F-1.76989355141318
aF16.97844720668505
aF-3.0569798321139316
aa(lp187
F-1.9697645762877927
aF17.122081812269883
aF-2.4608837733797926
aa(lp188
F-0.8228906049159532
aF18.228053791326
aF-3.7493728337515324
aa(lp189
F-0.4927077263232629
aF16.6349778829952
aF-4.081776157282373
aa(lp190
F-1.3483954867659287
aF16.79392185455148
aF-4.39581137037211
aa(lp191
F-2.0551172851458577
aF17.089984518991606
aF-3.2098893068267107
aa(lp192
F-0.8121307814989326
aF16.881945569298644
aF-4.410815492831519
aa(lp193
F-1.5606929568216463
aF17.001981138840513
aF-2.321590325804689
aa(lp194
F-0.5670926153007225
aF17.291358113191396
aF-4.230734744962377
aa(lp195
F-0.8045042333362071
aF18.0076021188371
aF-4.409309193843454
aa(lp196
F-2.006126110201067
aF18.49398005094104
aF-3.4189227687561514
aa(lp197
F-2.853298049878996
aF17.399531217908347
aF-2.8957835267275187
aa(lp198
F-1.1573878672239872
aF18.343949663745548
aF-5.343587492647125
aa(lp199
F-3.1594950372156014
aF17.739209182309324
aF-3.398346739466664
aa(lp200
F-2.7326591598859045
aF17.629372391793233
aF-4.1927256823809715
aa(lp201
F-2.5761577302458583
aF17.315257097287436
aF-3.7136311660603116
aa(lp202
F-3.5101819685453353
aF16.054217394455254
aF-5.610620367498911
aa(lp203
F-2.7058708489153065
aF16.556466983431726
aF-5.11714078964707
aa(lp204
F-2.624871635674983
aF15.50453477476745
aF-6.15550179600997
aa(lp205
F-3.920267574747185
aF16.083893809269025
aF-6.559195634864955
aa(lp206
F-3.7273811927215657
aF16.28754184292142
aF-6.990302356645198
aa(lp207
F-4.051796695135941
aF15.880132284750786
aF-6.204416367671683
aa(lp208
F-4.099822329017917
aF15.630734320171362
aF-5.7631111635182535
aa(lp209
F-1.4394444298938907
aF15.76754541634607
aF-5.032756791435184
aa(lp210
F0.09487467957229566
aF18.827078828196772
aF-4.38670418587192
aa(lp211
F2.7806778626585222
aF19.462745065166715
aF-5.084146254168961
aa(lp212
F0.9355493233573301
aF14.001839252580698
aF-9.224666144609618
aa(lp213
F-0.42105776773030135
aF14.025844928712047
aF-8.431539205636582
aa(lp214
F-0.5303960335422843
aF14.897867673833439
aF-7.734408664622835
aa(lp215
F0.11832708959543138
aF14.25221569829869
aF-8.447587512979963
aa(lp216
F-0.16850772596489696
aF14.211038696178617
aF-8.21827064532137
aa(lp217
F0.3773791733675743
aF14.13440882838442
aF-8.100209025227507
aa(lp218
F0.5878018470407068
aF12.839986245224528
aF-8.351098339318265
aa(lp219
F1.9565144001901835
aF13.47594236686318
aF-8.119844285365485
aa(lp220
F-0.029481046718037644
aF13.366385028797609
aF-7.6202183297232775
aa(lp221
F-0.20434532356035617
aF14.125057091071872
aF-7.164317197261875
aa(lp222
F0.21845895324128128
aF13.041645297698288
aF-8.651793735762013
aa(lp223
F0.6464961071127775
aF13.99459177968401
aF-7.878359940061864
aa(lp224
F-0.3436058726754203
aF13.676179098875279
aF-7.690550705139599
aa(lp225
F0.5267909589940687
aF14.685652229800146
aF-7.53132268829102
aa(lp226
F-0.4902692102272158
aF12.010039228946578
aF-6.429448819261417
aa(lp227
F0.7050347492822686
aF13.08896918210147
aF-7.09076557352485
aa(lp228
F0.5878931355521729
aF12.068920791041426
aF-7.461580570742969
aa(lp229
F0.012842177361956607
aF13.223703266627314
aF-7.247794336854757
aa(lp230
F-0.29894518842696316
aF13.147350867214284
aF-5.733643684732648
aa(lp231
F-0.059653687866450825
aF12.351006256647436
aF-6.309901118350541
aa(lp232
F-0.2776748633264434
aF12.791326771100264
aF-6.6090684482151465
aa(lp233
F-0.8462776349341259
aF12.866240571370211
aF-6.527592233719801
aa(lp234
F-0.028980524451403828
aF12.844203911800966
aF-6.586574826565153
aa(lp235
F-0.9801072621972249
aF13.346157818454312
aF-6.102690531275814
aa(lp236
F-0.7299579911221896
aF12.318911420789933
aF-6.5511363298182985
aa(lp237
F-0.6093356546577067
aF13.73551104421556
aF-6.779822570912273
aa(lp238
F-0.6395351533358392
aF13.63961641146776
aF-6.520628005733138
aa(lp239
F0.01885623914147036
aF12.507019383673706
aF-6.035397565451574
aa(lp240
F-0.6779268488821694
aF13.419356374359467
aF-6.924801196064929
aa(lp241
F-0.8570634605297487
aF13.712780600589891
aF-6.863429173251306
aa(lp242
F-0.6956730607372057
aF11.617805312930843
aF-7.521738078871406
aa(lp243
F-0.37285759512691163
aF13.55409349973774
aF-6.5757895626079845
aa(lp244
F-0.5571322675944635
aF13.425234465806843
aF-6.41257234908978
aa(lp245
F-0.9802844214047439
aF13.430337520681354
aF-6.907174792542354
aa(lp246
F-0.06159242331150307
aF13.598329868109893
aF-6.19594903383459
aa(lp247
F-0.18387055843401107
aF12.766585208132573
aF-7.108144474953455
aa(lp248
F-0.3180477737314107
aF10.91611635877646
aF-6.495155141848707
aa(lp249
F-1.5516677213973682
aF13.236194873892057
aF-6.14684603566756
aa(lp250
F-0.24095639500854535
aF14.914578412824964
aF-8.9492614113948
aa(lp251
F1.0454276457927199
aF12.12437081849296
aF-9.012721491372492
aa(lp252
F1.8130988425674732
aF12.661534125299191
aF-9.352557337493991
aa(lp253
F2.094669090762619
aF11.622446434824953
aF-9.28955669311636
aa(lp254
F0.9698460349322078
aF17.54293744191819
aF-2.6006322230470738
aa(lp255
F2.7294567939695913
aF17.903731751207033
aF-2.834871925309215
aa(lp256
F-0.8138140237955527
aF18.441016563599256
aF-2.2810347450600896
aa(lp257
F0.764244200732694
aF17.13233185363675
aF-3.9475296990331943
aa(lp258
F-1.2947796038150794
aF15.795462806922087
aF-6.2357268982758445
aa(lp259
F-0.9904144635682163
aF15.127248675487689
aF-6.117967805102215
aa(lp260
F-2.6161720553735157
aF16.12697461272732
aF-6.164135655580586
aa(lp261
F-1.667917449670262
aF16.151378236496686
aF-5.963030876298814
aa(lp262
F-1.9785434598992833
aF15.220927178054568
aF-6.431351709162647
aa(lp263
F-0.8268210564851733
aF16.089064528301098
aF-7.520329787594147
aa(lp264
F-1.641384922353344
aF14.971636662129288
aF-6.072901756991171
aa(lp265
F-1.2300870071455778
aF16.038005067681066
aF-5.887260005422312
aa(lp266
F-1.6789637943932192
aF16.05105737960383
aF-8.168982984461557
aa(lp267
F-0.6343732366434877
aF15.5619703578057
aF-6.456384594692942
aa(lp268
F-1.8357884054043991
aF15.590268370436858
aF-6.983312728923677
aa(lp269
F-0.7265143215811486
aF15.459611234792067
aF-6.989427613611477
aa(lp270
F-0.6628452422247241
aF15.57970853614919
aF-6.721944374839787
aa(lp271
F-0.819113103919652
aF15.660870785603231
aF-5.833812667065345
aa(lp272
F-0.753453502313598
aF16.093511646533447
aF-5.939794104653743
aa(lp273
F-0.9752140338333564
aF15.542152070248846
aF-8.749092431510604
aa(lp274
F-2.0967472155911433
aF19.688048859060135
aF-3.1719556754923035
aa(lp275
F-2.362995182943522
aF19.70222578527572
aF-3.5301611763127476
aa(lp276
F-1.6882028836768759
aF19.657233246191172
aF-5.1292174353764155
aa(lp277
F-0.5434618628092203
aF14.272405463055161
aF-7.326675434236367
aa(lp278
F0.02659355923633768
aF13.779288353063055
aF-6.411145642058493
aa(lp279
F0.2706615861519337
aF13.764683643261886
aF-6.615285742257453
aa(lp280
F-0.5125210299916637
aF13.608227886190068
aF-5.978334026364327
aa(lp281
F-0.4315981981339486
aF13.475877196553474
aF-6.153907712966481
aa(lp282
F-0.33156749772586663
aF14.039499921835121
aF-6.442200231770573
aa(lp283
F-0.14832056491183065
aF13.64823248538063
aF-6.568262765805658
aa(lp284
F-0.8652015322505524
aF20.57295186450021
aF-4.650562012617684
aa(lp285
F2.32961895430093
aF12.900432461683138
aF-9.092497139583864
aa(lp286
F0.4308135296892389
aF-0.78050163927616
aF-5.354513495377995
aa(lp287
F0.36122508156157895
aF18.762204162565677
aF-3.3184438822175655
aa(lp288
F-2.4426735325468543
aF19.500768488925026
aF-3.522582422492708
aa(lp289
F-2.4037372947692996
aF19.3383707074988
aF-3.043949088442047
aa(lp290
F-1.9425079180958091
aF20.30774558709847
aF-4.507163790856346
aa(lp291
F-1.997345881401376
aF19.377258767393936
aF-2.5287737373389363
aa(lp292
F-2.2333014784559078
aF20.07075995926694
aF-4.263751293032166
aa(lp293
F-0.5643341492496292
aF19.02429696911411
aF-4.9303321785821765
aa(lp294
F-1.0983975216905875
aF20.629887952934357
aF-4.502101358415692
aa(lp295
F-1.0960154087562741
aF20.799509586904026
aF-4.1002558261712245
aa(lp296
F0.08427097157144148
aF20.469898851839872
aF-3.0737635992318673
aa(lp297
F-1.2880605608367872
aF20.535845149268397
aF-4.513138649700442
aa(lp298
F0.0771695484375586
aF20.075131268438135
aF-4.122356975639901
aa(lp299
F-1.907994794090711
aF18.99643576728947
aF-2.327063895914813
aa(lp300
F-1.9971987644126485
aF19.169048269425634
aF-4.427501755707346
aa(lp301
F-2.3534146347444156
aF19.938887015044646
aF-4.092001667675119
aa(lp302
F-1.118904596698884
aF20.537024432113128
aF-4.622541467546212
aa(lp303
F-2.100191367228791
aF20.20648583002057
aF-4.389687965390176
aa(lp304
F0.027411118133616835
aF20.48904362176359
aF-4.831364932531165
aa(lp305
F-0.10412884427849135
aF20.711361359004677
aF-4.741192315242887
aa(lp306
F-0.508501342478078
aF20.8435881618299
aF-4.167418595245511
aa(lp307
F-0.8776813577204656
aF19.738900787789298
aF-4.866960251002442
aa(lp308
F-0.29120157430731486
aF19.712270384234344
aF-4.97340634466049
aa(lp309
F0.3798880021232028
aF20.597367004240795
aF-3.0539545897470357
aa(lp310
F0.45152720764457543
aF20.517966357918354
aF-4.526020805138931
aa(lp311
F0.7941036070440026
aF20.064752703061863
aF-4.0448199325021585
aa(lp312
F1.643958921627212
aF19.84239961248763
aF-4.590170093240157
aa(lp313
F1.4169268723094357
aF20.06500364761491
aF-4.8040311669323925
aa(lp314
F1.0702090244786868
aF20.27177144940706
aF-5.609704966131381
aa(lp315
F1.3831389727919143
aF20.08912226200646
aF-5.414566949480586
aa(lp316
F0.7470587458130373
aF20.383578348315222
aF-5.778083935966335
aa(lp317
F8.663506083804897
aF2.093859862742149
aF-8.025869593715909
aa(lp318
F2.922753895143008
aF12.899522874648449
aF-8.508584718597128
aa(lp319
F1.4813160287016773
aF14.948151108606613
aF-9.39336431338853
aa(lp320
F-1.7853744722583804
aF14.221461710144327
aF-6.833946295388902
aa(lp321
F-0.923107785939543
aF15.103198471238558
aF-6.637998868176041
aa(lp322
F1.6529018588215192
aF13.925475998460616
aF-8.620524387903867
aa(lp323
F1.2912627538484314
aF19.052831136972607
aF-2.656449971185321
aa(lp324
F2.696368168434584
aF20.027287026098712
aF-3.481674224957527
aa(lp325
F2.6869210507141372
aF19.70570022880882
aF-2.9746979626640226
aa(lp326
F1.4674019364069522
aF19.491442430537223
aF-3.197911470712893
aa(lp327
F7.307343937633779
aF26.069286385821474
aF10.250088494537062
aa(lp328
F0.0019346281701241863
aF18.654198952645903
aF-5.763006770320525
aa(lp329
F-1.6331755827884866
aF14.247034706475336
aF-7.515619226846969
aa(lp330
F1.0535142283967818
aF14.04351796283085
aF-7.712524878089928
aa(lp331
F-0.9440830357069275
aF13.53508371730214
aF-6.534072259261545
aa(lp332
F0.5405918169296559
aF13.542705641812525
aF-7.175722009859882
aa(lp333
F-0.8858754307956238
aF13.192904451113328
aF-7.866425324009532
aa(lp334
F-0.8564767999445022
aF14.76512768301213
aF-7.6044844617038745
aa(lp335
F-0.8971557928847373
aF14.293789485345213
aF-8.682275699546105
aa(lp336
F-1.063690010388105
aF14.43969615858222
aF-7.338188526147559
aa(lp337
F-1.9505517476326595
aF13.941779954857541
aF-7.173154434312279
aa(lp338
F-1.3020053539200378
aF13.902175514529171
aF-8.565550075662815
aa(lp339
F-1.6900934570352226
aF13.581063649642664
aF-7.978731615936233
aa(lp340
F-1.2207310948772376
aF13.887026624304319
aF-7.052795205406056
aa(lp341
F-0.3915512841281984
aF14.567290570481378
aF-6.12156699658768
aa(lp342
F-0.7992243082717324
aF15.085157513559377
aF-6.548158261431485
aa(lp343
F-1.1727065741418239
aF13.376459861743083
aF-7.722186548812688
aa(lp344
F-0.3440578034060716
aF14.970870959303987
aF-6.418977506912627
aa(lp345
F-0.9690268193153517
aF13.904954639669523
aF-6.5453152996168305
aa(lp346
F-1.400045601104495
aF13.10635720847493
aF-7.192072190235114
aa(lp347
F-0.14829675336864342
aF13.505245217027982
aF-6.034036969151929
aa(lp348
F-1.4628018176712052
aF13.462463210093267
aF-7.755468823138656
aa(lp349
F1.9083287432827531
aF14.572510925534612
aF-7.875985323479839
aa(lp350
F0.19463213199512452
aF15.570021582983044
aF-6.550056243094028
aa(lp351
F-1.105693684439143
aF16.991032771909957
aF-5.371626692479271
aa(lp352
F9.449812488042916
aF2.623092536763337
aF-8.110583489529468
aa(lp353
F1.2526391670476098
aF-0.6655442820656604
aF-5.773387403619503
aa(lp354
F-2.3682942756471634
aF12.53224663953057
aF-5.3316760635121065
aa(lp355
F-0.6856657541231375
aF13.939153289346857
aF-4.941335417271682
aa(lp356
F-1.3280183081395145
aF14.02480224609419
aF-6.1570166162403535
aa(lp357
F-1.105588709178168
aF14.375193852981658
aF-6.081574121867812
aa(lp358
F-1.2432149362934501
aF13.307635757764347
aF-5.436207932561387
aa(lp359
F-1.5787861203274771
aF13.743221459557216
aF-5.60359880557956
aa(lp360
F-2.048057166799549
aF12.442509698314527
aF-4.7032031430277526
aa(lp361
F5.618392598706405
aF7.653130739865942
aF10.842782931550081
aa(lp362
F4.546000546621265
aF7.427810661121225
aF10.511993354178605
aa(lp363
F10.467267829387076
aF7.776795795539294
aF9.24874062850896
aa(lp364
F10.361330236167811
aF8.054484793619977
aF9.756760360684538
aa(lp365
F10.073457213150903
aF9.353513868079824
aF9.126627726705836
aa(lp366
F10.086602403356483
aF8.534808246349838
aF9.36182670279264
aa(lp367
F10.160468188621655
aF8.654448129614108
aF10.063542482638615
aa(lp368
F9.913790925016366
aF8.720954893696565
aF9.249003936949556
aa(lp369
F10.680017145437041
aF8.326554713974748
aF9.708385747909556
aa(lp370
F9.690842555277786
aF8.636671143010602
aF8.791445967268595
aa(lp371
F10.561664502364064
aF8.655348071361193
aF9.374661613690437
aa(lp372
F9.408420610431087
aF8.948391450493313
aF9.39631608276398
aa(lp373
F10.26947988625232
aF8.372472427581197
aF9.384259132903429
aa(lp374
F10.348446618509296
aF9.298523765746934
aF9.346769320687564
aa(lp375
F10.11267338695457
aF8.86123440050624
aF9.367400033240404
aa(lp376
F9.64316388663504
aF8.80034825092576
aF8.464760223007715
aa(lp377
F10.730489080735266
aF9.617669152659396
aF8.25695747774781
aa(lp378
F10.573230692907678
aF9.155205907278196
aF10.062798610657158
aa(lp379
F9.720046834443655
aF9.625732439964278
aF8.757876473774045
aa(lp380
F10.368790995005186
aF9.502679908989357
aF9.662954435468746
aa(lp381
F10.142171964138251
aF8.854843010418618
aF9.895479199135758
aa(lp382
F9.912938941540943
aF8.623388761143051
aF8.9069313075901
aa(lp383
F9.785897604077977
aF9.304814636314115
aF9.655396121321525
aa(lp384
F9.663956696850459
aF8.437343280532623
aF9.556749572792976
aa(lp385
F9.502290001048323
aF9.568897959709961
aF9.330216917096902
aa(lp386
F10.078820600555295
aF8.777090369696056
aF8.932274919338077
aa(lp387
F10.529135723962451
aF9.06193899324297
aF9.061400595399787
aa(lp388
F9.930629878037116
aF8.43712464538851
aF9.572038516067487
aa(lp389
F10.47791607272576
aF8.49123520323526
aF9.87920384969796
aa(lp390
F10.891068154280736
aF8.677180897526199
aF9.479494013282602
aa(lp391
F9.95592994872682
aF9.168644260366154
aF9.557714023038077
aa(lp392
F9.60074673497814
aF8.32153554079744
aF9.200322724315587
aa(lp393
F10.243167009831357
aF8.489109889282302
aF9.093847587131032
aa(lp394
F9.845234404408084
aF9.204967579430372
aF10.255338311083237
aa(lp395
F10.359560341355607
aF8.114441101209643
aF10.056386525914586
aa(lp396
F9.99096092565696
aF8.606238755497326
aF9.989544321352593
aa(lp397
F9.749649093504688
aF8.941640179286418
aF9.830338159856375
aa(lp398
F9.842467127149515
aF8.088638536071397
aF10.28834282954722
aa(lp399
F10.839192708031456
aF9.207719706300313
aF9.45175666633734
aa(lp400
F10.651803130941605
aF8.712538752376375
aF9.778790890497023
aa(lp401
F10.571570959348522
aF8.83211042697159
aF9.709452899668364
aa(lp402
F9.677460711862143
aF9.266846078263876
aF9.203758368008549
aa(lp403
F9.20270101375737
aF8.865707551117609
aF9.297086833882142
aa(lp404
F10.292424904212659
aF8.9906880247204
aF9.80555357128507
aa(lp405
F10.688778556288604
aF8.220339719716648
aF9.58098223841066
aa(lp406
F10.546250626755459
aF8.382905106565147
aF9.09404788072265
aa(lp407
F10.240654993210482
aF8.509839370301407
aF9.576145296346322
aa(lp408
F10.468458943706645
aF8.796882084404432
aF8.780491060114638
aa(lp409
F10.24074391413976
aF8.107451865191631
aF9.225467313735049
aa(lp410
F10.31057057052149
aF9.232843948571887
aF9.623984109451825
aa(lp411
F10.89893011679306
aF8.612810770108448
aF9.733372311480625
aa(lp412
F9.936109277540522
aF9.501451350747045
aF9.490695105408172
aa(lp413
F10.329159956299895
aF9.399114169976087
aF9.131178506162232
aa(lp414
F10.903034402028435
aF8.829193051601901
aF9.165225088858797
aa(lp415
F10.438811750964229
aF8.933331193523706
aF10.099803736139128
aa(lp416
F10.357620538274736
aF8.80177491183658
aF9.245345930506064
aa(lp417
F10.197534279874901
aF8.291574144888253
aF9.011017129726259
aa(lp418
F9.73823364953355
aF8.651060986565414
aF9.469811863943496
aa(lp419
F9.99903068299457
aF8.0996057300835
aF9.87949740816558
aa(lp420
F10.210490745188185
aF8.360588746233136
aF9.978910995456284
aa(lp421
F9.368825529858702
aF8.673593162512203
aF9.588083006056765
aa(lp422
F10.670404158802164
aF8.783164905839337
aF9.443192175775655
aa(lp423
F10.325946797065948
aF8.918173301460596
aF8.968986660047333
aa(lp424
F10.625402457486631
aF8.841820888069002
aF8.937325916079496
aa(lp425
F10.159057545726762
aF9.222096457198836
aF8.968602188247676
aa(lp426
F10.55982898940411
aF7.990537197012262
aF9.593615875155944
aa(lp427
F9.85440243300482
aF8.639147936635851
aF9.749158062206737
aa(lp428
F10.358345253063897
aF8.63521574434231
aF8.788206015466253
aa(lp429
F10.854921891307725
aF8.31712042562361
aF9.4457361097846
aa(lp430
F9.992056994105322
aF9.236878284006373
aF9.849699244419373
aa(lp431
F9.495129678192734
aF8.907515794874747
aF10.030920271640293
aa(lp432
F9.621139936201795
aF8.03022306037485
aF8.356227549421861
aa(lp433
F10.610863593788746
aF8.408386344864509
aF10.202133999432462
aa(lp434
F9.64794549309683
aF9.068011447431234
aF9.106365501315622
aa(lp435
F10.169033868130242
aF9.43857556175009
aF10.093879806402455
aa(lp436
F9.904673595261041
aF8.820972827615668
aF10.094099449255912
aa(lp437
F-0.5447871374184053
aF16.396476154953543
aF-4.899954954267251
aa(lp438
F11.156214796852352
aF5.7379911174605285
aF7.038496916816002
aa(lp439
F12.580996328820602
aF5.162092917094477
aF5.198725939749065
aa(lp440
F11.276598651443235
aF5.46854879227923
aF7.1743911118847015
aa(lp441
F11.441088940139572
aF5.0131498521179605
aF7.533050702419717
aa(lp442
F12.366287565727601
aF5.74063616367356
aF6.935242483984238
aa(lp443
F12.204729515893828
aF4.399114859177781
aF6.8102166293807205
aa(lp444
F6.859939758891106
aF9.26608030367438
aF10.775344186155138
aa(lp445
F7.630351509196208
aF7.845577913331902
aF10.42571888064921
aa(lp446
F6.963141195700406
aF8.16582502493442
aF10.9648039161617
aa(lp447
F6.597547041002617
aF8.019148140341972
aF10.379820769969596
aa(lp448
F5.730313177589873
aF7.86816117729267
aF11.271253963360623
aa(lp449
F5.207283246145218
aF7.683480679507934
aF9.9750846177278
aa(lp450
F6.598402111862354
aF7.35933800579609
aF10.365364988105998
aa(lp451
F5.049072891766711
aF7.0144406145400575
aF9.347693186957782
aa(lp452
F-2.866081989298832
aF18.890903149176125
aF-2.784140018983769
aa(lp453
F-0.2888336337189839
aF19.800570767583103
aF-1.711767916649235
aa(lp454
F-1.1513797237117223
aF19.442748555412024
aF-0.8162900901234423
aa(lp455
F16.192560028005932
aF13.362189892821986
aF-6.4510983529778105
aa(lp456
F16.97118996519039
aF12.78246841587051
aF-5.208820261588547
aa(lp457
F15.882460704153544
aF13.049052535533539
aF-7.049465509270373
aa(lp458
F16.735974889814997
aF12.038829980509615
aF-6.17616577273497
aa(lp459
F15.688618148564775
aF11.598711738619713
aF-6.744900536045227
aa(lp460
F11.83459909275601
aF4.9798815947247235
aF8.580549136000787
aa(lp461
F16.27159772124898
aF10.237462587019918
aF-6.377977829716653
aa(lp462
F7.472757894785727
aF1.3375614978289054
aF-7.752791393557936
aa(lp463
F-1.90738266043126
aF21.3172058443663
aF-1.5300121454926519
aa(lp464
F10.545617265935507
aF5.605345932396203
aF6.671666808013538
aa(lp465
F-0.27279099772589754
aF21.945297345308298
aF-4.20659813792348
aa(lp466
F0.4014727127592115
aF20.972373548902272
aF-3.2034649071808996
aa(lp467
F-10.377782174505679
aF8.762151551985497
aF9.016113842351924
aa(lp468
F-1.6707687392747288
aF21.095691529968096
aF-4.207015979465102
aa(lp469
F-1.0054316345313603
aF20.051452712074553
aF-4.264147721751802
aa(lp470
F7.492739981695136
aF5.15726974010891
aF9.522485788738338
aa(lp471
F7.233086156381999
aF6.727448257871911
aF11.120473237975267
aa(lp472
F4.630838127739895
aF5.255776676180481
aF7.473610059911259
aa(lp473
F5.089471204439209
aF4.43495201697339
aF8.836132208402908
aa(lp474
F5.037694712271468
aF5.4517468143961745
aF8.318864781112179
aa(lp475
F5.725712305035968
aF5.309659220960458
aF8.67549809590537
aa(lp476
F4.120899051050502
aF6.380030917355884
aF8.912088030569434
aa(lp477
F4.529747162897555
aF5.720829148958246
aF9.261889926251243
aa(lp478
F9.71569114471623
aF8.872073598042345
aF9.576160994233655
aa(lp479
F9.551902461994132
aF7.6420576093047625
aF8.53743486946814
aa(lp480
F10.14125149888335
aF6.618668148285392
aF8.968279110336839
aa(lp481
F10.766138395776629
aF7.362731152421273
aF9.154740389500448
aa(lp482
F11.329346797780124
aF7.0100931064385446
aF8.84553583670917
aa(lp483
F10.35830803723817
aF7.415638979424365
aF9.134619559328652
aa(lp484
F11.138488052549233
aF8.198917202524465
aF9.903585853641538
aa(lp485
F10.085836207595563
aF7.8798466617779255
aF9.708609942283692
aa(lp486
F10.076024326801155
aF7.687124072218995
aF8.776829841222057
aa(lp487
F10.36325132874401
aF7.56705883446572
aF8.978802696647021
aa(lp488
F10.785027422404358
aF7.5216350399151555
aF8.402533661132868
aa(lp489
F10.843963827150848
aF8.700728747847439
aF8.793828273104513
aa(lp490
F10.85924739429781
aF7.770276165108611
aF10.04155085088622
aa(lp491
F10.522528169284492
aF6.728807764690146
aF8.90196282217128
aa(lp492
F11.126369853546176
aF7.155002982515858
aF8.934906639847219
aa(lp493
F10.686053072914618
aF7.5039466820169185
aF9.195354802210426
aa(lp494
F10.721656639575972
aF8.358154623261543
aF8.439025474873421
aa(lp495
F10.818642021485338
aF8.397900327364342
aF9.136517958795197
aa(lp496
F11.092198833941143
aF7.851854448506366
aF9.059300636532814
aa(lp497
F9.706167541449785
aF8.12946357029603
aF9.074362732550009
aa(lp498
F11.467739900410065
aF6.863139871945672
aF8.891559679346491
aa(lp499
F10.837545592909386
aF7.288814437223145
aF8.690491893303847
aa(lp500
F11.179063147619896
aF7.545963339440742
aF9.254946408805882
aa(lp501
F10.190968819348981
aF7.483825193871011
aF8.254479302174513
aa(lp502
F10.604124261005468
aF7.700244583916078
aF8.250634757147498
aa(lp503
F10.68113579243456
aF7.729891414710797
aF9.010736711955385
aa(lp504
F10.642914747745206
aF6.577878882102011
aF8.926406519040443
aa(lp505
F10.395783104607807
aF6.921276824568761
aF8.709698975662073
aa(lp506
F10.008723375073648
aF6.888996634191571
aF8.21884936978376
aa(lp507
F10.843175302003488
aF7.469178622502345
aF8.734840211175854
aa(lp508
F10.359282879116254
aF7.752352071158139
aF8.85686702845714
aa(lp509
F11.500081698748815
aF8.432626761209129
aF8.354987732024158
aa(lp510
F10.176714343936307
aF9.175193588562253
aF8.724649424857187
aa(lp511
F9.92782553674771
aF9.15092591194167
aF8.816871758261833
aa(lp512
F10.355188923454051
aF9.51214080897054
aF8.013306057419381
aa(lp513
F10.31446051586753
aF9.104152710016468
aF7.9665601793526175
aa(lp514
F11.039246580749294
aF9.492601292691575
aF9.289780042682871
aa(lp515
F10.517099013838163
aF10.923059889574542
aF8.189172278347328
aa(lp516
F9.189950027863725
aF8.559961695383246
aF8.477066175829991
aa(lp517
F9.079892152843868
aF7.823539063225869
aF8.087534175840672
aa(lp518
F9.780533241676023
aF7.148506312383114
aF8.349130711789462
aa(lp519
F9.947036078257531
aF7.49748120017569
aF7.1462991503257225
aa(lp520
F9.854354208172749
aF6.677240042248832
aF8.829906750209464
aa(lp521
F9.449313994766998
aF8.53864936897976
aF7.3014271354558575
aa(lp522
F6.120464645856192
aF0.6412217185800818
aF-7.427012808396235
aa(lp523
F8.686450662038782
aF9.637809288939595
aF7.814704133409438
aa(lp524
F8.507082657802915
aF8.304405719143505
aF9.624136365274486
aa(lp525
F8.77983328913306
aF9.437952600752798
aF8.239662907126174
aa(lp526
F9.817454482492112
aF9.07601379744448
aF8.206743467141672
aa(lp527
F9.199326897189437
aF9.91404227132974
aF8.137364670925402
aa(lp528
F8.908123594200767
aF8.473230925791448
aF7.354993582610643
aa(lp529
F8.975228149060008
aF9.824629645352744
aF8.778459694121278
aa(lp530
F-2.922862881058021
aF13.594437757044204
aF-7.563426896258259
aa(lp531
F-1.2855022006501782
aF18.65654632015031
aF-1.596187991452005
aa(lp532
F10.94562711373908
aF11.457856760418426
aF10.547429321018411
aa(lp533
F10.589812290532977
aF12.203257903863422
aF11.45379900825887
aa(lp534
F10.893962545392244
aF12.545282318351845
aF10.51694416128467
aa(lp535
F10.417608092148942
aF12.445630025896781
aF11.0263569472493
aa(lp536
F11.025125450764252
aF11.796424509573853
aF11.763280680190041
aa(lp537
F11.752778723829438
aF8.213484297443188
aF9.669079890043918
aa(lp538
F11.014738872334235
aF8.384781064725102
aF11.041517245579133
aa(lp539
F10.950535065950344
aF8.692962511081985
aF9.301297322814497
aa(lp540
F10.889292517678696
aF7.161134634738115
aF9.92720657038794
aa(lp541
F10.568656806101414
aF7.293241233043461
aF9.615547717646615
aa(lp542
F11.728099114320182
aF8.515103720110007
aF10.482626467194647
aa(lp543
F10.912373869250203
aF7.680897578273368
aF8.375900453286143
aa(lp544
F16.220360854635828
aF11.168494293006761
aF-6.7922795816015125
aa(lp545
F10.077629736209415
aF6.0391356728391035
aF8.330453673794096
aa(lp546
F11.382288838583575
aF6.743574860061213
aF9.106823903279908
aa(lp547
F10.194457114138915
aF6.850181842349659
aF8.576254457390144
aa(lp548
F10.78859502692522
aF6.709257105415637
aF7.712246186010503
aa(lp549
F10.301065249256773
aF6.245830899446883
aF8.21925240524422
aa(lp550
F10.61784826586554
aF6.958747487902686
aF9.35262277177608
aa(lp551
F10.798849037977183
aF5.74246883931327
aF8.616514994731858
aa(lp552
F10.186092393027131
aF6.435562931907424
aF8.28925041187378
aa(lp553
F9.851635826513043
aF7.058755140575005
aF8.807379998645596
aa(lp554
F10.342507173677365
aF6.606087572730683
aF8.666113719005867
aa(lp555
F10.025670596200946
aF9.728012482476748
aF8.40545614689027
aa(lp556
F10.268059517180028
aF10.081640064152786
aF9.761862742780256
aa(lp557
F10.85504010104713
aF10.050257353369567
aF9.883013959567839
aa(lp558
F10.785841346865357
aF9.627004875596366
aF8.869498207512196
aa(lp559
F0.5424590557000984
aF1.4709906802338688
aF5.942378319380136
aa(lp560
F0.4954410492137895
aF0.7854302927200693
aF3.6270451406282778
aa(lp561
F-0.09666108077447577
aF0.4488101312939779
aF4.158242663103092
aa(lp562
F-0.22240533935639756
aF1.4529213336334692
aF5.519676762092949
aa(lp563
F-0.02725223444248634
aF1.3500871146677398
aF4.914151224242682
aa(lp564
F11.135998537482472
aF6.932017684906387
aF9.366104325750237
aa(lp565
F10.184484442725413
aF7.973255897432837
aF8.221672770755342
aa(lp566
F9.795457611205311
aF6.781078010265426
aF8.398261560684551
aa(lp567
F11.109549261705606
aF7.203200050957653
aF9.733494097065137
aa(lp568
F10.36641824612478
aF7.243105812228105
aF8.14233680608243
aa(lp569
F11.504781253105394
aF6.983934271660205
aF8.424826351042473
aa(lp570
F9.825911664106465
aF24.613401224613185
aF10.928522377134493
aa(lp571
F-0.330836648030231
aF15.657029200867461
aF-5.496669819126308
aa(lp572
F-1.0860667743246133
aF16.100912429379083
aF-5.12176480843088
aa(lp573
F-0.043274586084259804
aF15.585883728750895
aF-5.776360011446959
aa(lp574
F-0.7606292589682179
aF15.487221742359974
aF-5.4436138425743446
aa(lp575
F-0.7468142376909764
aF14.89391197916011
aF-5.629732917428704
aa(lp576
F-0.22427912789245957
aF14.96215077223903
aF-5.7373151918567435
aa(lp577
F-0.33186269392260537
aF15.274607160917334
aF-6.231629338628109
aa(lp578
F-0.20488546389264967
aF16.116152125538633
aF-3.8362988997607506
aa(lp579
F0.3717214155676038
aF16.923164946444935
aF-4.128168581675514
aa(lp580
F-0.7673764506564441
aF16.173983602075342
aF-2.7452354821095986
aa(lp581
F-10.219792717326715
aF4.847604235343002
aF3.9511670510453256
aa(lp582
F-9.618026555353842
aF4.258523252959153
aF5.432365952623127
aa(lp583
F-0.8039817778882034
aF13.426138310649993
aF-5.8799936563155315
aa(lp584
F-0.9388897860764046
aF13.138760935081235
aF-5.7624933588791984
aa(lp585
F-1.87203894167609
aF14.033554544997616
aF-6.297358632978094
aa(lp586
F-1.0308682917238097
aF12.917300844492075
aF-6.3833666508901405
aa(lp587
F-0.9844566380371448
aF14.022661267743766
aF-5.960318933301851
aa(lp588
F-1.9971011899628912
aF13.844817452450105
aF-5.717574810986367
aa(lp589
F-1.9164051771908157
aF12.640021199702282
aF-5.554136729462442
aa(lp590
F-1.63443811651411
aF13.952289736595155
aF-6.690030674393116
aa(lp591
F-1.5195575884790626
aF14.469140450127776
aF-5.30661069910808
aa(lp592
F10.984999985217154
aF6.769681726358936
aF8.584412098150539
aa(lp593
F10.632013205066695
aF6.482124446846955
aF9.12143774093968
aa(lp594
F9.646047867924796
aF6.243731038014979
aF8.267716447490573
aa(lp595
F10.577809687799839
aF6.856691812405263
aF8.16716331024968
aa(lp596
F9.58525810644021
aF5.988530388563594
aF8.664207235966385
aa(lp597
F10.278256073226043
aF5.795615726162061
aF8.350159569853979
aa(lp598
F10.158609717376857
aF5.7987125677583355
aF8.87477867466112
aa(lp599
F9.29418308921156
aF5.957164603638901
aF9.30449816466341
aa(lp600
F9.899408069084796
aF6.765910434986409
aF9.392906297734097
aa(lp601
F10.116059470504323
aF5.816533487575282
aF9.175895307527984
aa(lp602
F11.328776904037916
aF7.529220331270275
aF8.750958308169148
aa(lp603
F11.738970494772275
aF6.6009604881942
aF8.575749487752764
aa(lp604
F15.483434696354038
aF10.810616828237485
aF-7.341137633589033
aa(lp605
F15.07498581850651
aF8.765038965675211
aF-7.267066510176846
aa(lp606
F14.45031500090782
aF9.422021374073402
aF-8.274165128200274
aa(lp607
F15.755073887697803
aF9.716426053885785
aF-7.0313450337756
aa(lp608
F14.82768597578307
aF9.029077732973503
aF-7.877756301352415
aa(lp609
F11.550243372435746
aF6.861322703825466
aF9.454617431925541
aa(lp610
F11.167217688821532
aF6.213062073697437
aF8.575913199993574
aa(lp611
F11.500658130783961
aF6.9881128301953765
aF7.153797173946264
aa(lp612
F11.32487615312643
aF6.29738676680629
aF8.06790685474094
aa(lp613
F-0.9339162495770473
aF12.468022918354476
aF-6.240076122915539
aa(lp614
F-1.7514278839019688
aF12.08196752157563
aF-5.814307922546131
aa(lp615
F4.7151199427377914
aF25.026365475905063
aF12.470923347629709
aa(lp616
F5.161490279406034
aF4.030769048380433
aF6.457104115694374
aa(lp617
F-5.175466422244713
aF17.502298905915406
aF14.145626780986243
aa(lp618
F-5.363146433577203
aF17.046175837483055
aF14.975604334093239
aa(lp619
F-5.383207615987594
aF17.84308985844928
aF14.780318668918962
aa(lp620
F-5.097351687035467
aF17.94312624277227
aF14.310527981116788
aa(lp621
F-4.971710794060746
aF17.478652398289196
aF13.52189090935298
aa(lp622
F-5.726262372626564
aF17.32992533095828
aF14.508124968056032
aa(lp623
F-6.159379897171761
aF18.02208771352038
aF14.14736239446481
aa(lp624
F-5.490495778117464
aF18.37293533590889
aF13.88525376437509
aa(lp625
F-6.13967947054953
aF16.210222512407405
aF13.739983726264217
aa(lp626
F-4.86586784187825
aF16.945970870762267
aF14.538508177100793
aa(lp627
F13.066734039452644
aF24.292480975971372
aF7.630559059766327
aa(lp628
F-1.0395465842244556
aF2.1436783505865957
aF8.217869245992665
aa(lp629
F1.1484099669024292
aF2.1662235240959173
aF6.6773882659204125
aa(lp630
F-1.2285219452623053
aF2.636471571074321
aF7.882732871907103
aa(lp631
F-2.4694318012455825
aF17.090605809769738
aF16.323787222913282
aa(lp632
F-4.340524000653915
aF16.13777306599922
aF15.106994141769217
aa(lp633
F7.754185403354878
aF4.338128072570214
aF10.777736037356412
aa(lp634
F8.166171999928972
aF4.6981934980568285
aF11.562911754990967
aa(lp635
F7.678990850180756
aF4.590094017883515
aF9.153230536932256
aa(lp636
F8.6725406639582
aF5.284405000537783
aF9.349611321843701
aa(lp637
F8.3925870860918
aF5.416149586947913
aF10.859637253838477
aa(lp638
F6.958512922791918
aF5.221768493245615
aF11.062324839997645
aa(lp639
F7.929511365443074
aF3.733125587151774
aF10.15425443053649
aa(lp640
F8.848430521486126
aF4.803810678686257
aF10.579187093425002
aa(lp641
F6.736717965762237
aF4.937206670672821
aF10.091150343447739
aa(lp642
F8.387667282663315
aF3.9349963528382856
aF10.992476022566958
aa(lp643
F7.51555184722036
aF3.8456719772976875
aF7.970658873686558
aa(lp644
F1.137064377034282
aF21.346114762931492
aF0.33507932652078753
aa(lp645
F0.1363485771676553
aF22.600210748497364
aF-0.808710060722853
aa(lp646
F0.975560227221125
aF21.881320452570655
aF0.1536926189097266
aa(lp647
F0.45197308186979257
aF22.153528674658812
aF-1.1751532802335702
aa(lp648
F0.2518188692149759
aF21.39316144162869
aF-0.22175583839758864
aa(lp649
F0.8434617205291624
aF20.73950043461781
aF-1.7740670688383948
aa(lp650
F0.2994832608316997
aF21.030726402300516
aF-1.3478071084538092
aa(lp651
F-3.3385994233904035
aF-0.4888558838079789
aF-3.2580022690057846
aa(lp652
F-2.1688220281344095
aF15.777092166540475
aF-7.179345841353871
aa(lp653
F-1.2259121386518494
aF15.056902477425732
aF-4.7649545336284
aa(lp654
F6.080323364191444
aF5.385177749935896
aF8.677249638788778
aa(lp655
F16.17463029284387
aF22.14407339078028
aF1.5851874333471745
aa(lp656
F12.632861388617282
aF9.710960240866484
aF8.170876770529762
aa(lp657
F11.744641701414242
aF8.573479988934755
aF8.862384627885005
aa(lp658
F11.755051873530713
aF11.024894297030382
aF8.339411028205333
aa(lp659
F17.33549180023803
aF18.132066550835667
aF-2.877620715619462
aa(lp660
F-4.318879410208015
aF19.208644536720126
aF-5.2467622382299535
aa(lp661
F0.6764929172083272
aF23.58730635597024
aF-0.5188042923207627
aa(lp662
F3.0173946913787364
aF24.309048457197605
aF-0.6983025184959835
aa(lp663
F0.7953721973789873
aF23.096177028627416
aF-0.9583405198803093
aa(lp664
F-2.3306064838264726
aF20.904315415283406
aF-2.472775065867295
aa(lp665
F-2.2899297356887076
aF20.629064959425683
aF-3.5482886728640173
aa(lp666
F10.612499611222031
aF6.187815323449503
aF8.148051478749318
aa(lp667
F11.007321026840652
aF7.584428319451701
aF7.953151885279693
aa(lp668
F11.556911330933712
aF6.059571594915315
aF8.340677665551768
aa(lp669
F4.5506985623756915
aF7.568540642248153
aF9.224420932667488
aa(lp670
F6.866085352676613
aF6.43847454739306
aF8.137123716986562
aa(lp671
F-0.33200961944365837
aF22.666120125741646
aF-0.614817085180227
aa(lp672
F-0.1086989556005203
aF22.82107159207686
aF-2.691537959539972
aa(lp673
F0.16097824225228946
aF21.546032763953267
aF-2.1441019573634605
aa(lp674
F6.690736963784744
aF3.2365020516872476
aF8.125504337183427
aa(lp675
F6.3558612001677535
aF3.0186093908756395
aF9.508455875143207
aa(lp676
F7.159821986298438
aF2.5995356145142514
aF7.560413624174272
aa(lp677
F-6.756876598334735
aF16.749276642552967
aF13.909053761335057
aa(lp678
F-7.714999728466324
aF16.12278894944156
aF12.602629991861663
aa(lp679
F-7.986550210662941
aF16.887227360608247
aF12.500189856552517
aa(lp680
F-7.168503400261521
aF17.157451189723695
aF12.654508871967654
aa(lp681
F-7.107923811726114
aF16.16787753828144
aF13.084965750845699
aa(lp682
F-0.41108411958774277
aF16.50636246981581
aF-5.226118821087453
aa(lp683
F-5.596793699682798
aF17.308278607567146
aF13.906929903408422
aa(lp684
F-5.737307760767064
aF17.88586993737044
aF13.225038141216798
aa(lp685
F-4.637502937496329
aF17.934051212096012
aF14.038442316557639
aa(lp686
F-4.9126016582551735
aF18.535003619648318
aF13.507446902584638
aa(lp687
F-5.3781156732018705
aF18.279322770167276
aF14.802437881772908
aa(lp688
F-6.210655667208243
aF16.733110762126145
aF14.61367909214794
aa(lp689
F-4.930677524652972
aF16.385876253650437
aF14.240050828310219
aa(lp690
F-4.012521381720011
aF17.389324965212843
aF14.83583880889102
aa(lp691
F0.13162954662158619
aF22.441872542344473
aF14.323253907107766
aa(lp692
F-1.536350825629411
aF22.143590054013995
aF13.876057377840016
aa(lp693
F1.737408179909121
aF-0.698203023318739
aF-5.828849702157964
aa(lp694
F10.044705729155124
aF7.034784696308451
aF9.53489734673315
aa(lp695
F12.355919269886174
aF7.3913429483740885
aF9.54785440152499
aa(lp696
F-1.3457663055358735
aF12.79583669026166
aF-4.211480555919067
aa(lp697
F-0.5957166702231506
aF13.457542306568554
aF-5.637761458229894
aa(lp698
F-0.09274803882059902
aF13.594045543242911
aF-5.687127174752963
aa(lp699
F0.6390240897990062
aF13.843580140148179
aF-5.714932578158094
aa(lp700
F-0.2884998811785639
aF14.410998617974395
aF-5.565987602549483
aa(lp701
F1.439247370051644
aF23.42982249274171
aF0.1644350987801943
aa(lp702
F4.767479309180319
aF22.30948226867437
aF-3.5026898275450997
aa(lp703
F4.8998436634514375
aF22.008889678177415
aF-2.91526965283616
aa(lp704
F2.627894465192031
aF21.536085403637518
aF-2.872749248311501
aa(lp705
F6.348828596746271
aF4.446657673453346
aF9.479408206279807
aa(lp706
F6.617780253868165
aF4.394913819260896
aF10.771417538493665
aa(lp707
F7.132346914956827
aF4.228755444936263
aF9.289911110974122
aa(lp708
F7.260180174069201
aF4.264269991563128
aF9.734569563344376
aa(lp709
F5.91347250454766
aF3.581658208436784
aF8.66005119359411
aa(lp710
F6.732865306368418
aF4.70163395305456
aF9.586152718871961
aa(lp711
F0.45285320394091655
aF1.1480309784168137
aF4.79560933552451
aa(lp712
F-0.6546354368478989
aF1.9290248125373388
aF6.108378646757587
aa(lp713
F0.2726184550678177
aF0.4977214820797645
aF6.496026472101228
aa(lp714
F0.7430308423342274
aF0.4569637119689098
aF5.020680930103649
aa(lp715
F0.3333037821741547
aF0.6158704534433409
aF5.716715278569185
aa(lp716
F-0.596040741126514
aF1.4314161090862465
aF6.638337578440907
aa(lp717
F-0.18869890788507715
aF0.921975855038949
aF6.7959848085029515
aa(lp718
F-7.699882351299203
aF1.5347104869798012
aF0.5534293443181978
aa(lp719
F-2.5512141965943127
aF21.188591341396652
aF14.45382982248476
aa(lp720
F-3.4101964277193364
aF20.459087226425602
aF13.251212819977301
aa(lp721
F-4.321648699029948
aF21.118239453966883
aF14.101747458579748
aa(lp722
F-4.400917004864472
aF20.46818879612421
aF13.28159329700741
aa(lp723
F2.4002945237027924
aF2.251415842678701
aF6.623392253512744
aa(lp724
F8.191707791714503
aF25.29032640427532
aF10.979730310508726
aa(lp725
F-10.057994919319865
aF10.724337312234727
aF10.421690809365174
aa(lp726
F-4.6587761013993685
aF21.23662656159948
aF12.591488346686292
aa(lp727
F-3.888085527167858
aF21.316286691370443
aF12.853771738167453
aa(lp728
F-10.069752046069448
aF6.4919010912099875
aF7.785246286339039
aa(lp729
F-10.36574123156576
aF7.388891085969722
aF7.983567273726248
aa(lp730
F-1.820092313388521
aF13.76305886109175
aF-6.059810181007736
aa(lp731
F-2.8244259316636264
aF13.892373343346074
aF-5.393242773350542
aa(lp732
F-2.9829816014421553
aF14.19424197611902
aF-6.188555684198211
aa(lp733
F-6.924259228685655
aF1.0719950714797584
aF-0.6627247929845312
aa(lp734
F-6.925317043124214
aF0.8709665514501173
aF0.23691529406745482
aa(lp735
F-6.29716708762693
aF0.4736263124667457
aF-0.4190091102957382
aa(lp736
F-1.293661226571749
aF16.223165499431
aF-6.598101099455603
aa(lp737
F-1.7349345075664915
aF16.26897023807071
aF-4.8055450573280165
aa(lp738
F0.23490578250820687
aF16.496796662135043
aF-6.925253096257983
aa(lp739
F0.2490479758304876
aF23.42319355208647
aF-1.271871543089041
aa(lp740
F16.75641511682844
aF21.241470967499705
aF1.0248739747294668
aa(lp741
F-1.9898180062525106
aF15.78251945702669
aF-6.4063711561189285
aa(lp742
F-2.9262928122744514
aF15.383420722216872
aF-5.477880130959132
aa(lp743
F3.7681976643134636
aF23.619890137261486
aF14.03724683863319
aa(lp744
F3.7812125521172484
aF24.27156371423615
aF13.380274667114996
aa(lp745
F-0.511132712495359
aF17.79235331366911
aF-5.634117973319895
aa(lp746
F-0.9050046070685954
aF19.469169201465366
aF-5.774895728870772
aa(lp747
F-0.16837380323014559
aF21.785942012699756
aF-0.49636161553656843
aa(lp748
F-0.13406651200753147
aF22.614357564069117
aF0.6541801429351791
aa(lp749
F-1.3873406952812535
aF22.652744604087797
aF-0.7309150105513599
aa(lp750
F-0.8346766200512362
aF21.995822184712416
aF-1.4481026893491746
aa(lp751
F17.658418008887256
aF18.729940530392632
aF-0.9631507971229061
aa(lp752
F7.640639119454237
aF2.980130198691718
aF6.7636139877699115
aa(lp753
F6.208722146420605
aF4.256310987272409
aF7.9011182046405155
aa(lp754
F7.7824223814361
aF3.344364855736189
aF8.516888328123166
aa(lp755
F7.832458380147682
aF2.5783805049842967
aF7.305517507230417
aa(lp756
F6.594223232769806
aF7.529574407625285
aF13.283732374185467
aa(lp757
F6.641906481704568
aF8.065579009873618
aF13.166981879846677
aa(lp758
F7.901306437269384
aF6.190499947323766
aF11.897654303534335
aa(lp759
F-0.596928835131839
aF12.183211040233308
aF-5.921376605247282
aa(lp760
F-1.2175433189242904
aF13.255969695166149
aF-5.746450621656962
aa(lp761
F-1.5777263913104864
aF13.493806204290497
aF-6.390389641081259
aa(lp762
F-0.31514564106487397
aF12.361011946832525
aF-5.803866072344625
aa(lp763
F-0.5831835354450977
aF17.223089168738657
aF-6.9024733515503165
aa(lp764
F5.287754235862011
aF5.217707938668374
aF8.676964707737518
aa(lp765
F6.5839167450384535
aF5.166761997572844
aF9.675902026763739
aa(lp766
F6.392887723289261
aF5.2319167863855025
aF9.235527387225419
aa(lp767
F6.468222050379116
aF4.450346465672635
aF8.861588235894157
aa(lp768
F5.411692346649314
aF5.687466836249901
aF8.712319132268714
aa(lp769
F5.948144529785299
aF4.869118145701123
aF8.582543338749984
aa(lp770
F1.6410298447047607
aF23.679901335703494
aF1.2623217401464888
aa(lp771
F0.5039157708612606
aF24.0715317311292
aF1.2809023723602426
aa(lp772
F4.732671853406347
aF6.457418695006081
aF9.957949041534468
aa(lp773
F5.9511662678691275
aF23.995398232283982
aF13.430159543978673
aa(lp774
F-1.3241634469824406
aF12.874162192583476
aF-6.241780096139394
aa(lp775
F0.062039480295459234
aF12.499428868480363
aF-5.286121522262636
aa(lp776
F-2.3451385825658497
aF12.894480733844645
aF-6.475096636814079
aa(lp777
F-5.039184989928034
aF18.322596407250128
aF-5.283053264976896
aa(lp778
F-3.346313299337199
aF20.670670701364255
aF-4.644474114275344
aa(lp779
F1.7602120360439646
aF20.838050442491838
aF-3.523444622705943
aa(lp780
F1.755757790267151
aF20.366031699408207
aF-2.69638692722745
aa(lp781
F1.4756006170085936
aF21.10361686316138
aF-2.8997878904014693
aa(lp782
F10.603071498926791
aF7.270368154715311
aF6.848707545282188
aa(lp783
F10.518956651133331
aF6.64688809622527
aF7.296604031909555
aa(lp784
F-2.9514165664851153
aF23.092311779033682
aF4.163286869908221
aa(lp785
F-2.410352737896948
aF22.46741254440912
aF2.4291133750758336
aa(lp786
F14.859306582648252
aF23.761428072226174
aF3.049034295621727
aa(lp787
F-3.568631896129652
aF20.79694150765618
aF14.04460484532654
aa(lp788
F3.659596668677926
aF6.926077742224538
aF10.002354137539495
aa(lp789
F4.211202595308844
aF5.255893374119761
aF9.805836116594385
aa(lp790
F4.683429978949471
aF7.625595271444716
aF9.774526417241812
aa(lp791
F4.279637763729076
aF7.1044094102649495
aF10.76821148609216
aa(lp792
F5.48670542912221
aF5.626235421674643
aF9.727505035587331
aa(lp793
F5.404302225544228
aF5.2225851735967295
aF10.536732096689038
aa(lp794
F5.07365399086172
aF6.184119794665628
aF9.089321526672215
aa(lp795
F5.511918071012898
aF7.247923551004914
aF10.034070350771067
aa(lp796
F3.777661538934249
aF5.899975916064616
aF10.315979272412852
aa(lp797
F7.249636832805322
aF2.767451331140888
aF9.464098331900038
aa(lp798
F8.287953757216606
aF4.341258462106258
aF8.790259977260899
aa(lp799
F5.6574681350758285
aF3.5944862114103446
aF6.8801471556951626
aa(lp800
F-0.5512011743747399
aF15.132283834978605
aF-5.334369755901405
aa(lp801
F0.35719806187944786
aF16.336588438438593
aF-5.909788551768328
aa(lp802
F2.277799232558692
aF13.741223173898662
aF-6.201344301442959
aa(lp803
F2.346582743206516
aF13.98635860349386
aF-6.548283600164251
aa(lp804
F0.5724365781680539
aF13.005608834439066
aF-5.982349250527857
aa(lp805
F1.4555599001761408
aF12.987293036112606
aF-5.436698266721987
aa(lp806
F2.3371213504268997
aF14.238158093634127
aF-6.901052576464775
aa(lp807
F-5.137126652782442
aF16.806970512485883
aF15.487189632505743
aa(lp808
F-5.276126050946989
aF16.292172286011535
aF14.998696358922034
aa(lp809
F7.195740364847091
aF7.0533842547667
aF12.24517408934135
aa(lp810
F6.7073580284287315
aF7.3613986283432835
aF12.234779773785942
aa(lp811
F6.9372823807991555
aF6.849118415000228
aF14.083346671461952
aa(lp812
F2.351063838460322
aF16.802895148630828
aF-5.164030026208323
aa(lp813
F1.4886343373500703
aF16.365304145994674
aF-3.8990461142750776
aa(lp814
F-3.6291228284032946
aF19.81195481703808
aF-2.7618689302639416
aa(lp815
F11.503909161785522
aF9.067903000708862
aF8.315424790695289
aa(lp816
F13.34171383809192
aF10.2673631219126
aF7.45395588617793
aa(lp817
F13.518702128578106
aF10.367930303307281
aF8.187400825820742
aa(lp818
F5.776024618862607
aF6.634187706254925
aF9.58733187821221
aa(lp819
F5.9834224980967745
aF6.116334036781663
aF10.682403765291177
aa(lp820
F6.1468794597568435
aF3.5517841470248674
aF8.571355942366335
aa(lp821
F5.158408696786097
aF5.129253002118796
aF9.491234697840603
aa(lp822
F5.799743573399532
aF3.8943368977096684
aF8.959834662934952
aa(lp823
F5.815602596116588
aF4.519132462527997
aF9.155874157754383
aa(lp824
F5.686520474552026
aF4.496076165060801
aF8.560048489853418
aa(lp825
F6.057940174126014
aF3.5762869343742802
aF9.65218673089275
aa(lp826
F-4.253884416052184
aF19.95309588274368
aF-1.5245667406070709
aa(lp827
F-4.0293447709189705
aF19.63598861036556
aF-1.0675261511559588
aa(lp828
F-3.1931602195576425
aF19.67571957753193
aF-1.974224593019047
aa(lp829
F10.266449504068303
aF5.306682348684191
aF8.188185345971739
aa(lp830
F11.32181844717787
aF5.136588376000197
aF8.922395160274624
aa(lp831
F10.23239594596863
aF5.42432942727199
aF7.848421023818914
aa(lp832
F9.763452448006765
aF7.265682398060896
aF7.628741348220114
aa(lp833
F11.123752745932023
aF5.644131616632934
aF8.115674011913349
aa(lp834
F10.446495481522378
aF4.50132115704876
aF6.962774965383949
aa(lp835
F11.167914304068793
aF4.689952892034473
aF8.33653508011487
aa(lp836
F11.095289040193151
aF6.034254277345416
aF7.506943936277876
aa(lp837
F10.444497588688737
aF5.411582927338105
aF9.000859630910178
aa(lp838
F-0.1075234551527456
aF23.84558139576368
aF1.4115181915507486
aa(lp839
F0.10040110409817939
aF24.66741910721927
aF0.5265519506369448
aa(lp840
F-9.97765335862307
aF8.44456705439184
aF9.620768464574176
aa(lp841
F9.76644318544086
aF10.499125155662439
aF10.16168851390832
aa(lp842
F10.164176588637542
aF10.106351445258822
aF10.695361056946297
aa(lp843
F9.632910741145835
aF9.879375717905031
aF7.936123062222533
aa(lp844
F9.550532941345665
aF8.608273511055138
aF7.788273637839342
aa(lp845
F10.555865892889392
aF9.717801469270281
aF8.252571898787943
aa(lp846
F9.907132554492783
aF7.643365640311449
aF7.959188535257041
aa(lp847
F10.208370354903117
aF8.445627092111861
aF7.955179443425357
aa(lp848
F5.429434934158055
aF4.599015265399135
aF7.686129391162082
aa(lp849
F1.4770376161315766
aF19.81621422839554
aF-2.7865738781133143
aa(lp850
F-10.706196898493424
aF6.188646443508573
aF5.236315662522607
aa(lp851
F2.918151164395111
aF1.483775551877314
aF5.343540326045651
aa(lp852
F3.3031229378756373
aF0.23422214970441804
aF3.16158609458842
aa(lp853
F10.222311639156784
aF8.052430685633372
aF5.221977534614607
aa(lp854
F16.56272594464046
aF21.401326370834514
aF0.533152818011472
aa(lp855
F1.0873227881790029
aF14.323178792924507
aF-6.053129828760759
aa(lp856
F12.051842455616882
aF5.08131343170895
aF6.489696346573261
aa(lp857
F11.748434095877716
aF5.371435023848435
aF5.984266834520883
aa(lp858
F11.203404156859978
aF6.615567926352422
aF6.196982284266145
aa(lp859
F11.73683356216084
aF6.6277557081442176
aF6.3957348630365285
aa(lp860
F12.26602703270554
aF5.535684848506304
aF6.269734898886841
aa(lp861
F11.531134160041603
aF6.3264084151063305
aF7.3356495321491675
aa(lp862
F-0.19689729544200865
aF13.419239484883507
aF-5.1622476328261016
aa(lp863
F0.34226630905229094
aF12.229152401711909
aF-5.7501491664197495
aa(lp864
F-3.27603853886948
aF20.047858394885246
aF-2.376742804370756
aa(lp865
F2.1461693220479465
aF3.9438586321096336
aF8.919305978593313
aa(lp866
F0.1323535025902635
aF4.134095070299519
aF10.073210144166453
aa(lp867
F5.8107894261829
aF6.2385034648304885
aF11.335210616498044
aa(lp868
F16.180550914623698
aF9.312923914026719
aF-6.148278183800979
aa(lp869
F10.586875799307096
aF8.622855887219123
aF6.8957336944483805
aa(lp870
F12.276069187763417
aF6.909010402059052
aF7.057267631384176
aa(lp871
F9.28415141247481
aF9.053490510810402
aF6.027426602372775
aa(lp872
F0.7344796324778807
aF18.170883274698426
aF-3.407691946854336
aa(lp873
F7.338231885018553
aF8.526609801014144
aF9.608993563242933
aa(lp874
F11.990130176286842
aF25.543384374436247
aF6.583919305863804
aa(lp875
F-6.0068564623999805
aF18.748566044237496
aF13.158490549753365
aa(lp876
F-6.459472819117249
aF17.950603814716516
aF13.255959859166683
aa(lp877
F-7.027879197354586
aF18.065980503485797
aF12.747324389375665
aa(lp878
F4.230026469308923
aF4.8141939459123515
aF8.43906287783345
aa(lp879
F4.573670452376248
aF3.881056344974975
aF8.680454021626547
aa(lp880
F4.156373382227587
aF3.959220030746531
aF8.245537747890118
aa(lp881
F8.075114496224817
aF3.42494048356395
aF7.782336508466378
aa(lp882
F-2.006823562235507
aF12.102894840085739
aF-5.68577318041449
aa(lp883
F-0.9466357114346984
aF12.218677909412598
aF-4.8032051979476975
aa(lp884
F-1.3730244130047464
aF12.172601512490452
aF-5.299336255437747
aa(lp885
F-0.9630351649700344
aF12.135370122217186
aF-5.239411635060471
aa(lp886
F3.6114350037635297
aF23.12414741246748
aF0.20281577396921124
aa(lp887
F6.994558564406448
aF4.009685915186638
aF9.608020303458728
aa(lp888
F5.585941711688399
aF3.4285352416939197
aF9.291654708348842
aa(lp889
F6.514712594008726
aF4.3660972572524885
aF7.552217901564528
aa(lp890
F5.756123338348766
aF4.369970345201615
aF10.698359748846892
aa(lp891
F5.886262125815955
aF5.000779799037562
aF9.488815683507122
aa(lp892
F6.1830397360115
aF7.678757326339344
aF9.229009743918896
aa(lp893
F16.775669765356525
aF13.287728292382152
aF-5.833173062881814
aa(lp894
F16.96778535251854
aF15.384335463259703
aF-5.152418358999396
aa(lp895
F17.43731418849762
aF14.919847312274142
aF-4.380353290584108
aa(lp896
F-2.2242253642156435
aF14.274668380478811
aF-6.488079564006943
aa(lp897
F-3.6700902786145693
aF13.486462330250017
aF-7.173118850366451
aa(lp898
F5.949336175399265
aF8.899188647102275
aF13.898352098649063
aa(lp899
F3.7777900350540365
aF-0.2073464644557357
aF-6.715841574252921
aa(lp900
F4.270269166017825
aF3.189712150470225
aF11.308521210529724
aa(lp901
F5.798428981666364
aF4.5300099030929974
aF9.553263943706192
aa(lp902
F-3.32424323273111
aF18.543439480800636
aF14.975335271289506
aa(lp903
F-2.1769177577914416
aF14.547465021743472
aF-6.910767416467603
aa(lp904
F13.647695887095306
aF24.111505257902976
aF6.912103029754632
aa(lp905
F17.051633238050513
aF19.474665619719442
aF-2.017936690575468
aa(lp906
F4.335716985435195
aF5.289929503041554
aF8.611521635517184
aa(lp907
F16.14100256721273
aF22.223348414401386
aF2.9530812680783702
aa(lp908
F-0.8437928708518849
aF16.076919467080376
aF-5.340420201894855
aa(lp909
F-0.37118196725984887
aF16.7296885866896
aF-8.189999719680905
aa(lp910
F-0.35545705353450663
aF16.351149062530173
aF-7.034888850805134
aa(lp911
F-2.113725557490005
aF15.394275341409966
aF-5.353217617333172
aa(lp912
F-0.37427073529064064
aF13.979065514883962
aF-5.225027728295277
aa(lp913
F9.125036328195858
aF2.405374682778328
aF-8.067185002636776
aa(lp914
F-2.9178361758779587
aF11.359330920729278
aF-5.251758261645586
aa(lp915
F-2.4188832134650866
aF11.415136300026056
aF-6.650915447186676
aa(lp916
F-1.8588145996394194
aF11.157241219230643
aF-6.575615636515378
aa(lp917
F-4.899431010442701
aF14.581609800982429
aF-5.272974284681002
aa(lp918
F-0.8477043709206628
aF21.738242803923615
aF0.8330728126638858
aa(lp919
F-1.9016020706281311
aF1.963246466233532
aF6.470209502058307
aa(lp920
F0.2086513374807595
aF21.79160304733738
aF-2.9414092993958483
aa(lp921
F6.455859139557114
aF8.16091144436438
aF10.257429022681563
aa(lp922
F-2.976844015364925
aF14.973631960743793
aF-6.785528271623145
aa(lp923
F-3.131412853838041
aF14.670298436416862
aF-6.101637720293004
aa(lp924
F-2.028509553959101
aF14.995033201795811
aF-4.958880444436639
aa(lp925
F-2.987030086149265
aF14.587750134604589
aF-5.629392722244303
aa(lp926
F-1.1808618629343253
aF14.99841130434633
aF-5.6976806216456115
aa(lp927
F7.150901928840983
aF7.815391409801896
aF14.07569220657264
aa(lp928
F4.943840887786124
aF6.324516283220608
aF11.077679520040222
aa(lp929
F5.96792119582334
aF5.513253964320442
aF10.6195753795445
aa(lp930
F8.000675842107817
aF4.989868053290087
aF10.156195121194639
aa(lp931
F6.589631494250469
aF4.985210981984145
aF8.834774311087434
aa(lp932
F4.327470277020745
aF4.811937585814945
aF8.891220620660903
aa(lp933
F5.235478751748938
aF5.546224547483204
aF7.779887979686454
aa(lp934
F6.118892127753388
aF5.941735490473377
aF8.196385262857762
aa(lp935
F4.621073610445032
aF4.7394979279355995
aF7.3906555924718615
aa(lp936
F0.694032260360224
aF20.45155822146318
aF-2.821872058121222
aa(lp937
F-1.7191761278164106
aF18.297408634693436
aF-5.098335501958616
aa(lp938
F8.239833525145324
aF1.8253667684723025
aF-7.949151818320552
aa(lp939
F-2.563452255109053
aF11.200123426788906
aF-5.492658584805118
aa(lp940
F-1.6591468139140357
aF12.332827434684177
aF-6.873533781201386
aa(lp941
F11.53568593489951
aF9.492979738285504
aF8.783381594627926
aa(lp942
F5.222680090373515
aF9.344012088796445
aF11.717371221629417
aa(lp943
F5.664838166983511
aF8.582419883427727
aF12.642147087770306
aa(lp944
F5.366604266807916
aF9.135552936504586
aF12.086491276319508
aa(lp945
F5.580595790444062
aF8.973294205105498
aF12.436168790879321
aa(lp946
F11.275158125897912
aF6.947086975239009
aF8.226985855703786
aa(lp947
F10.4296620643355
aF7.454082697324307
aF7.772459907221845
aa(lp948
F10.792177362110897
aF7.432133472699386
aF7.735985395708289
aa(lp949
F-0.04278407736027704
aF2.2552837914410446
aF7.5208148924842755
aa(lp950
F14.471475163374441
aF24.108781497244202
aF3.826644141286461
aa(lp951
F13.306299404257453
aF24.939120131261607
aF5.053194719465965
aa(lp952
F7.094052627444343
aF2.6010874488557265
aF8.385840259921556
aa(lp953
F5.543681184603703
aF3.476255374079052
aF7.431109907642339
aa(lp954
F5.111383873856666
aF4.439428384438686
aF9.08513412969583
aa(lp955
F3.089091895228389
aF22.277294332079713
aF-2.052503920918729
aa(lp956
F1.5452078265588698
aF22.703308804076933
aF-0.8307908595516272
aa(lp957
F-2.091169486200383
aF18.436776640959625
aF-3.2769393462254492
aa(lp958
F-5.2251236131828644
aF20.918446346345668
aF12.450277916889823
aa(lp959
F5.3447911005905215
aF4.962274984890066
aF7.708396231220218
aa(lp960
F-4.513975242373998
aF21.413364733506626
aF13.343478508159897
aa(lp961
F-4.092145789277801
aF20.74792622698017
aF12.396175389091965
aa(lp962
F-4.93271334866618
aF22.049712550586843
aF12.095912327538166
aa(lp963
F15.397964584292813
aF23.21494245687947
aF2.4855275911452157
aa(lp964
F1.080627585056968
aF19.29377993907822
aF-6.68485138508871
aa(lp965
F2.972978177848528
aF-0.4373507391933575
aF-6.361483367948785
aa(lp966
F17.36354311254683
aF19.47512509574134
aF-0.8892905508995658
aa(lp967
F0.8571079978762487
aF16.66017066102452
aF-4.789461216046202
aa(lp968
F0.017792590372509222
aF17.344372277225457
aF-4.402582952893501
aa(lp969
F0.5413762407438287
aF17.822389597495448
aF-4.160658942148906
aa(lp970
F2.454517039202801
aF22.40265330096604
aF0.23231619952810895
aa(lp971
F11.484708594975668
aF9.633757773623545
aF8.422587151258526
aa(lp972
F11.396637135766186
aF24.588576636673007
aF9.456516048278731
aa(lp973
F-10.257051039790442
aF10.76866879405744
aF10.081072388985861
aa(lp974
F11.009997220477906
aF8.610363258709386
aF6.999031180699624
aa(lp975
F11.646778022703113
aF7.446914444545646
aF8.383217054859827
aa(lp976
F1.115517624929243
aF3.9395094549006333
aF9.529266365936932
aa(lp977
F3.236201905525371
aF4.082878276280405
aF8.126132251965474
aa(lp978
F2.342915413339438
aF3.681828853692099
aF8.371075805339817
aa(lp979
F-8.872492648362611
aF2.726089021060351
aF1.9684811063204124
aa(lp980
F17.436508295904012
aF19.687047231625407
aF-0.1236007081205339
aa(lp981
F11.542516882713189
aF9.454869639032163
aF10.118193308822681
aa(lp982
F9.710233286221987
aF10.876860457180971
aF8.764985160072982
aa(lp983
F11.306251458851174
aF25.7464118447714
aF7.197467331378231
aa(lp984
F12.717505439339632
aF25.146660235848653
aF6.133319973741586
aa(lp985
F0.7177160233933221
aF0.03108660082329411
aF3.9364708524832266
aa(lp986
F0.6710125610298445
aF-0.49016471891572194
aF4.755159679550581
aa(lp987
F1.5633363865753114
aF17.190322656948098
aF-4.3534354705078115
aa(lp988
F2.1367431218579473
aF16.206814361910485
aF-4.353388149133576
aa(lp989
F1.7390828939281016
aF17.22219880326965
aF-5.937517793216729
aa(lp990
F-6.602848878127005
aF18.069224934314306
aF12.238651113588572
aa(lp991
F8.588323242813386
aF4.988799274227588
aF13.145566965999121
aa(lp992
F8.191224131440114
aF4.94405630284825
aF13.145766623044713
aa(lp993
F7.792720700249233
aF6.536621593449974
aF13.167660756300135
aa(lp994
F7.74932486130456
aF5.6808761770106955
aF13.353317243419793
aa(lp995
F7.480169238625817
aF6.428217021225611
aF12.348478546461184
aa(lp996
F8.325080182595311
aF5.687577311842248
aF13.364309653879115
aa(lp997
F10.439828371564364
aF10.42507863860068
aF10.273853210183866
aa(lp998
F9.784121942103111
aF11.136855768743862
aF11.20334746630637
aa(lp999
F10.242634215326866
aF11.478757372942841
aF10.36860303799976
aa(lp1000
F2.2744329506905565
aF1.8668031793317192
aF5.838409925499111
aa(lp1001
F0.39564480976170163
aF17.57540127748782
aF-2.630143653889241
aa(lp1002
F0.3065189865264975
aF18.237526913145956
aF-5.261246373242244
aa(lp1003
F-0.5646965479217506
aF18.562099403395123
aF-5.703692042997132
aa(lp1004
F5.6199515315948405
aF7.076989557640191
aF8.175957821098432
aa(lp1005
F1.9213209068798447
aF7.626450014888454
aF12.734783446676587
aa(lp1006
F-11.149798259239786
aF8.2266781351894
aF6.577973859975816
aa(lp1007
F11.175389919810831
aF9.2218446956308
aF10.824895840601345
aa(lp1008
F-1.4221075110561276
aF12.372047527315274
aF-7.307025783685715
aa(lp1009
F-9.278590704191673
aF3.2322434963618023
aF2.4017801486193147
aa(lp1010
F-1.608055343660252
aF13.058064402664561
aF-9.353861034481373
aa(lp1011
F2.2035262912756894
aF16.955153294255467
aF-7.0037533994118535
aa(lp1012
F2.497949219283532
aF16.595123425713336
aF-6.4859231084948
aa(lp1013
F2.868770617414335
aF23.100756816704788
aF-1.1147979281185285
aa(lp1014
F-3.3977763049341863
aF21.25915847806514
aF-1.993863593148289
aa(lp1015
F11.220288170085457
aF12.222858166699556
aF11.150149828254454
aa(lp1016
F11.960249948325709
aF11.890198338531805
aF11.014695426143353
aa(lp1017
F11.766084431412864
aF12.382244787966
aF10.101247706721754
aa(lp1018
F11.31575805473098
aF10.980350140363829
aF10.9395432017206
aa(lp1019
F17.024530145669743
aF14.357292041345541
aF-5.171160659021517
aa(lp1020
F17.50805424953522
aF13.541070598103273
aF-5.279422416152484
aa(lp1021
F16.41232339156995
aF14.33074731039921
aF-5.832348425190247
aa(lp1022
F16.39875896412179
aF14.14317352421204
aF-6.549671868958879
aa(lp1023
F17.123106401028206
aF14.104280503275415
aF-6.120091240209176
aa(lp1024
F7.519834271632605
aF2.5091386337132455
aF7.88899692501309
aa(lp1025
F7.8337715803137415
aF3.542369269711291
aF8.307189071529155
aa(lp1026
F7.264605837699993
aF5.460376979809947
aF10.58007773167363
aa(lp1027
F-4.359845594176388
aF18.593019566559686
aF14.36825617565892
aa(lp1028
F-3.796350127934536
aF19.29098544925487
aF13.894045111146712
aa(lp1029
F10.122387815783668
aF24.9442294550231
aF10.157417170921121
aa(lp1030
F13.151410460948439
aF24.47784144077786
aF6.923633517412222
aa(lp1031
F-6.286228298823047
aF19.826327274432742
aF13.360037005179414
aa(lp1032
F1.1718485229270368
aF17.427316878146453
aF-4.763226927072068
aa(lp1033
F-2.88025728615804
aF18.24576666663472
aF-0.7142326486855031
aa(lp1034
F-1.9532923044981128
aF18.30281904893396
aF-1.611565415888464
aa(lp1035
F11.1732512800054
aF6.827557678176751
aF10.130781339645718
aa(lp1036
F8.241356300304913
aF5.585929022287617
aF12.27455557108526
aa(lp1037
F0.7567701885784404
aF21.501123859241865
aF-0.8449207856920016
aa(lp1038
F0.43391572484950064
aF21.42986057477342
aF0.8645209130069349
aa(lp1039
F1.9755896146816567
aF21.929936644476182
aF0.9626700734268812
aa(lp1040
F-1.1690597474013218
aF19.63673373156726
aF-6.0085135359659665
aa(lp1041
F11.618410651451343
aF5.000863412740851
aF9.445032825370516
aa(lp1042
F-1.5633551061047573
aF20.829924705583917
aF-0.9740947094435146
aa(lp1043
F3.772268206948334
aF8.365198907077374
aF9.899383712593544
aa(lp1044
F5.115460101902731
aF7.71664406325024
aF8.382338091689373
aa(lp1045
F3.2929586541673763
aF7.613557866020533
aF11.393766252812101
aa(lp1046
F10.47930832047539
aF7.800393825194614
aF7.299720496228144
aa(lp1047
F9.723149542518302
aF7.063814352917099
aF7.305270148261414
aa(lp1048
F6.855650299515081
aF4.636198419280981
aF8.75033049530339
aa(lp1049
F7.105820374155492
aF4.728943166720972
aF10.175744764163088
aa(lp1050
F7.917275369945772
aF3.4100511538202456
aF9.474471680701226
aa(lp1051
F8.20803406956449
aF4.745028022905363
aF9.503324226221933
aa(lp1052
F1.1193584443430808
aF16.567425594796187
aF-5.913725343541994
aa(lp1053
F1.19213912660138
aF17.925920788383028
aF-5.52566211072
aa(lp1054
F3.476686883918271
aF18.7309493287395
aF-6.780752515047724
aa(lp1055
F3.774149903527599
aF18.45030512132949
aF-6.298679488051485
aa(lp1056
F8.123379730976009
aF3.3215289439707045
aF9.104213617959573
aa(lp1057
F7.802707242685771
aF3.875593882420227
aF9.83518090592485
aa(lp1058
F-10.79195953817067
aF6.920678397315007
aF6.184642450754234
aa(lp1059
F14.415095082920935
aF23.905568671066735
aF5.074144055691973
aa(lp1060
F13.898382104196479
aF24.212388305772922
aF5.82530111480723
aa(lp1061
F4.597690990601858
aF5.063894029756026
aF10.89420048079577
aa(lp1062
F10.363906823904212
aF3.364768827685163
aF-8.212088919344144
aa(lp1063
F-2.357125092588383
aF14.290851692510387
aF-7.3499448153744105
aa(lp1064
F4.80393819596373
aF6.243734970317089
aF10.976201614657505
aa(lp1065
F10.646799305833586
aF7.722615500911745
aF7.253991939183332
aa(lp1066
F11.084197257215669
aF7.438060260877798
aF7.436885828831528
aa(lp1067
F12.29696695613964
aF7.91317977682694
aF8.752253317904168
aa(lp1068
F11.857294377424049
aF8.428906871803527
aF7.695276955116834
aa(lp1069
F15.329041071247794
aF23.131352433600263
aF4.112538625661451
aa(lp1070
F15.878764370399615
aF22.596309399361957
aF3.540924213056684
aa(lp1071
F5.964299743769975
aF9.268553553539236
aF10.98676298547539
aa(lp1072
F10.633140350676236
aF6.826750860997422
aF10.399806309770565
aa(lp1073
F4.392779987114331
aF3.410902959558045
aF9.163823967498178
aa(lp1074
F4.621332533463022
aF3.3487148560262754
aF8.272028849234777
aa(lp1075
F1.0410247747095351
aF16.002131911211098
aF-4.910471991949781
aa(lp1076
F0.12852746012375293
aF17.3097322834138
aF-5.687185137590666
aa(lp1077
F-1.6157261450404474
aF16.114819831123324
aF-5.460258870371824
aa(lp1078
F-1.135064524477727
aF15.67598034443366
aF-4.360197544672856
aa(lp1079
F0.14509476552781392
aF16.000040198489437
aF-4.229084658889977
aa(lp1080
F5.768087989698342
aF5.770637031754821
aF8.044070522343425
aa(lp1081
F4.09342679238352
aF5.489750921211086
aF7.381809580827941
aa(lp1082
F5.424374822528949
aF5.1231636953148705
aF9.074210435478484
aa(lp1083
F4.980667423684701
aF5.871339507003992
aF9.326547869619063
aa(lp1084
F2.9000525693382446
aF6.991558096775962
aF12.507779520316069
aa(lp1085
F-10.2667309766715
aF9.906204387710343
aF9.79102116097559
aa(lp1086
F-1.0497279948525453
aF-0.805691697007605
aF-4.551904119034812
aa(lp1087
F-8.305455299686749
aF2.082258313940395
aF1.5625258942193463
aa(lp1088
F-0.25476819404429374
aF-0.7932271945386661
aF-5.003114494187479
aa(lp1089
F0.38801327433809973
aF14.411170223385417
aF-5.4853491796632845
aa(lp1090
F4.460905445703229
aF4.240792534950818
aF9.864367926911084
aa(lp1091
F-2.4377245936321668
aF21.764553526834813
aF13.680222331363517
aa(lp1092
F-2.23447492753016
aF21.133916529996306
aF14.050552923437056
aa(lp1093
F-5.420290233058269
aF18.446793595797832
aF12.897057635905394
aa(lp1094
F-5.507008519337469
aF19.817928060932317
aF12.58007458785184
aa(lp1095
F-5.163849590421268
aF19.22178456534242
aF14.138381182314872
aa(lp1096
F10.70570129087115
aF10.249484206644583
aF8.523518541037662
aa(lp1097
F11.161334255756877
aF4.685078924722221
aF8.83439793326474
aa(lp1098
F-10.062460990547315
aF4.7517021250189275
aF4.610812960707423
aa(lp1099
F-11.051073473007808
aF7.411804501030927
aF5.9849312385161175
aa(lp1100
F6.033090520205272
aF8.327053350631022
aF11.399457413647603
aa(lp1101
F-10.972815776584929
aF11.111392703387803
aF8.773412415786506
aa(lp1102
F-5.965451495586013
aF21.295498399628773
aF11.835357019694785
aa(lp1103
F-10.586227623209165
aF10.756116980024727
aF9.468088763540202
aa(lp1104
F4.757142170462263
aF25.625273633092913
aF11.738910299505623
aa(lp1105
F15.295958294520961
aF23.282330144271764
aF3.1845423878543038
aa(lp1106
F-9.056752894166182
aF15.272725683499713
aF11.409547275169633
aa(lp1107
F-8.366996894455278
aF15.70848668351526
aF11.85755915737325
aa(lp1108
F9.287984950531529
aF4.228828233451077
aF9.934288111820699
aa(lp1109
F9.184287620274045
aF4.401340072614274
aF10.125182934225792
aa(lp1110
F9.15066492268695
aF4.114192978794336
aF9.175170417301521
aa(lp1111
F9.200875928733558
aF4.163371798940632
aF9.501156436255004
aa(lp1112
F10.577114305305345
aF10.779445152108488
aF11.541656160058128
aa(lp1113
F-6.617839184282923
aF18.594185899129975
aF13.576710408067166
aa(lp1114
F-3.7514046822150466
aF15.32700067697724
aF-5.942487082115898
aa(lp1115
F9.999470386312305
aF6.311769258119042
aF7.193351349463847
aa(lp1116
F16.191846382158708
aF12.414518832316272
aF-6.131850577726019
aa(lp1117
F-0.7018365264519875
aF22.273927749317703
aF14.151279092488203
aa(lp1118
F7.242486308971159
aF2.8838328023522033
aF7.214611112625607
aa(lp1119
F5.730421011714568
aF5.679453851222572
aF6.656028587968403
aa(lp1120
F5.289915394943835
aF6.54489161208515
aF7.308546940064492
aa(lp1121
F1.9728726224253057
aF23.262688238577198
aF-2.5240977011194565
aa(lp1122
F17.70853867708536
aF17.477727530812317
aF-2.4238150362933575
aa(lp1123
F8.630616043391562
aF8.214808908862775
aF6.958143916309515
aa(lp1124
F6.245055879166618
aF2.174098153111545
aF8.267563441837424
aa(lp1125
F-4.884096478756422
aF19.35847322210575
aF13.368366963147247
aa(lp1126
F3.9024070729896563
aF6.61248627763422
aF11.936700225465076
aa(lp1127
F3.7913653216840557
aF6.321848978040269
aF11.700675596712987
aa(lp1128
F4.272494823392464
aF5.937944535877939
aF12.160316807456281
aa(lp1129
F5.58513064419783
aF5.095116136269165
aF10.701873738558778
aa(lp1130
F-1.7233423234871492
aF13.546902300866401
aF-4.891959071170349
aa(lp1131
F-3.625988129634769
aF11.787785817706204
aF-5.663554697558565
aa(lp1132
F10.836821365863821
aF5.096747592158305
aF9.587566466040368
aa(lp1133
F9.035769771917614
aF6.252229214291355
aF7.790369564988476
aa(lp1134
F9.567099798150593
aF6.044922406378758
aF7.674012255092346
aa(lp1135
F10.997298994186549
aF7.6138963147197805
aF4.173926604078798
aa(lp1136
F9.157890209421007
aF8.122532700284824
aF6.557346303544179
aa(lp1137
F11.36864436448161
aF8.179686310469021
aF4.355273591341958
aa(lp1138
F11.052309225623565
aF7.572160220769392
aF5.651610305334494
aa(lp1139
F8.203667851423104
aF6.305675505707917
aF6.7472454020876285
aa(lp1140
F8.064421348745794
aF6.626922978907971
aF6.791374392511625
aa(lp1141
F-9.001887267878896
aF2.89443702730356
aF2.8153258179057787
aa(lp1142
F-1.038947185838133
aF0.26257103279286564
aF3.706990287467384
aa(lp1143
F-0.40517323503536645
aF0.12170809448252586
aF3.1442682956158543
aa(lp1144
F-1.9660543577551133
aF0.1756871292063536
aF3.2895613368212477
aa(lp1145
F-1.2209603792971966
aF-0.1034026433275943
aF2.696787554569408
aa(lp1146
F-7.007067402660363
aF13.731846514366202
aF13.935086023938814
aa(lp1147
F-5.506207506771899
aF15.226178040523271
aF14.555199146478905
aa(lp1148
F8.841279405842675
aF8.52348660712942
aF6.93179594656699
aa(lp1149
F1.510578007345358
aF17.666226427601707
aF-6.22392757991796
aa(lp1150
F12.156139697541661
aF9.242330497493578
aF9.290139456244864
aa(lp1151
F16.98603569040471
aF20.373062625895567
aF-0.5730820528500671
aa(lp1152
F0.32685159660929813
aF18.184693067908146
aF-2.847391986734216
aa(lp1153
F-9.908395356160137
aF4.2861282077124345
aF3.7596414391266726
aa(lp1154
F6.273179771852566
aF4.068900675507245
aF10.64016172238996
aa(lp1155
F6.22717555692902
aF4.449399183855936
aF10.867018038922014
aa(lp1156
F6.192796667444754
aF3.796008581836096
aF8.15161234082124
aa(lp1157
F6.626453741137253
aF5.980728716151731
aF9.812542680515971
aa(lp1158
F4.599028389061673
aF8.124589053533226
aF11.298775091311722
aa(lp1159
F4.991403116711835
aF8.176186949092951
aF11.952749970328773
aa(lp1160
F1.0001714117450147
aF18.145926031331744
aF-5.100266340300342
aa(lp1161
F0.7996216654659158
aF18.09698515163766
aF-5.8650607030881154
aa(lp1162
F0.4482697930103874
aF18.1955390792412
aF-6.096095753867321
aa(lp1163
F0.45589858077189854
aF23.69142479253496
aF0.2101823822029089
aa(lp1164
F0.9839314346395154
aF23.85010656963028
aF1.2774449169303965
aa(lp1165
F9.009531212802738
aF24.678726385026348
aF11.384490666114647
aa(lp1166
F-3.6647778851887316
aF20.24030104436852
aF15.096350197978117
aa(lp1167
F2.5071926677955103
aF-0.48025408010289483
aF-6.309100127416065
aa(lp1168
F-0.5557700056582866
aF23.22659539271853
aF-0.8682450350778368
aa(lp1169
F-3.548026817782619
aF13.914304808465294
aF-7.095312716638014
aa(lp1170
F1.3873608996315223
aF24.416932951151846
aF2.0265231864921227
aa(lp1171
F2.292349146094482
aF23.66179956410212
aF0.8856644667857178
aa(lp1172
F10.052147634145003
aF7.122153449729731
aF6.781498500857934
aa(lp1173
F10.78269262852848
aF6.301508936267183
aF7.316136058356892
aa(lp1174
F10.415079553699181
aF5.6950140718263
aF9.244086903793937
aa(lp1175
F9.432760548191029
aF7.0568527560177285
aF7.289270229297641
aa(lp1176
F11.919607081521251
aF6.508113310147817
aF7.909172633182437
aa(lp1177
F11.871268546104233
aF5.4638171293162054
aF8.333064719535265
aa(lp1178
F11.840241634523432
aF5.7246502163489295
aF8.767904277870045
aa(lp1179
F2.0024254892560713
aF24.52442557048147
aF0.04955831799262092
aa(lp1180
F2.5639954390992847
aF24.04919387682335
aF0.24382311181514466
aa(lp1181
F15.50305697760997
aF22.876624700255178
aF4.510098969969738
aa(lp1182
F6.896832329155035
aF4.909817303923048
aF8.330430795652687
aa(lp1183
F9.793600736530284
aF3.0764060261416333
aF10.158231657451372
aa(lp1184
F12.635298160906185
aF7.10104943048077
aF6.502209116206255
aa(lp1185
F12.155704031594118
aF6.965051021465715
aF6.033090623324195
aa(lp1186
F-1.3879702849671345
aF17.347816073267825
aF-4.631559601303094
aa(lp1187
F-4.640356231191352
aF14.052370414472007
aF-4.086115057979334
aa(lp1188
F3.8525240776996035
aF21.690369873715586
aF-3.0574003754607073
aa(lp1189
F17.529059134688307
aF12.265740576375721
aF-4.570049513067078
aa(lp1190
F17.626463361919175
aF12.966548715077954
aF-4.360913638604508
aa(lp1191
F17.356483358118457
aF13.660538625411794
aF-4.423742232147712
aa(lp1192
F-4.893371258779043
aF17.97800459572637
aF15.567230086979123
aa(lp1193
F5.191872665841541
aF3.3571192565616705
aF9.882521517544445
aa(lp1194
F0.09575248026275716
aF18.900019396359948
aF-1.5247123396068663
aa(lp1195
F1.3665699746123916
aF19.031893019689445
aF-2.2796465101877317
aa(lp1196
F1.629067234302499
aF19.931763327258764
aF-3.7811309657036647
aa(lp1197
F-2.870406723589441
aF21.510777855042463
aF-0.7212567905422858
aa(lp1198
F2.803581506826253
aF24.2578424932041
aF13.40288786927064
aa(lp1199
F12.579641048541534
aF9.078346534422577
aF8.069564254689833
aa(lp1200
F8.334788655687758
aF8.466262415414095
aF7.356586248787878
aa(lp1201
F8.859635976744164
aF9.129448638809228
aF6.250998655482342
aa(lp1202
F0.29270300532646953
aF14.372034069264595
aF-6.754441153421133
aa(lp1203
F-3.2915296255768696
aF13.100408953523813
aF-5.632779558009548
aa(lp1204
F13.616568976714863
aF24.615577298086585
aF5.433386571871585
aa(lp1205
F-0.13236587141340866
aF18.348220929273765
aF-1.3050211952409645
aa(lp1206
F0.3250671493215048
aF-0.25079105716383954
aF3.0853644421255657
aa(lp1207
F3.1007214780695525
aF16.739101848918054
aF-4.775516118908763
aa(lp1208
F8.781220713557104
aF2.9472524635479873
aF8.78325508838015
aa(lp1209
F6.243363184689398
aF4.972516235496755
aF7.833654892256996
aa(lp1210
F5.784376519105198
aF5.8414466706227195
aF8.31383887570443
aa(lp1211
F5.024446465640548
aF0.22732670996366963
aF-7.134845802032488
aa(lp1212
F-3.7136067802821104
aF14.606970706059794
aF-3.3964327503370946
aa(lp1213
F-2.70584185408585
aF15.372769008125223
aF-4.351770475719708
aa(lp1214
F7.890127597643198
aF7.276126882485533
aF8.045812391686992
aa(lp1215
F5.806948809978426
aF5.082806310054333
aF7.231324998954093
aa(lp1216
F5.5905454207244025
aF5.455929476293194
aF7.322477623545515
aa(lp1217
F-7.544457630817757
aF18.162821297667442
aF11.930573279510016
aa(lp1218
F-3.555556582515216
aF14.689667050954174
aF-4.575629318430498
aa(lp1219
F-3.5567906948381456
aF15.704724459812072
aF-6.905674478707899
aa(lp1220
F10.120386638164979
aF7.5611715208173065
aF6.089827548145319
aa(lp1221
F3.162819193308702
aF0.7746607057979437
aF4.255353125985979
aa(lp1222
F14.19505302204497
aF24.201116059633627
aF4.739231781795661
aa(lp1223
F-9.957277299534374
aF5.049937814899005
aF5.918515423327173
aa(lp1224
F0.03373383384560722
aF15.947770137811592
aF-7.186321920332589
aa(lp1225
F2.9233277886472555
aF23.916740806331028
aF13.744309908911392
aa(lp1226
F4.645466400332068
aF23.891788693029813
aF13.73367806116574
aa(lp1227
F12.246101370132122
aF5.143105513627347
aF-8.23980564830795
aa(lp1228
F-2.0234287657204733
aF21.43613046002881
aF-3.251078394519026
aa(lp1229
F-11.19631262933911
aF9.17010736769432
aF7.311285784514407
aa(lp1230
F3.264648198186444
aF5.092734776548188
aF8.185905027510707
aa(lp1231
F2.856823204799306
aF3.14661635917862
aF7.291675914109412
aa(lp1232
F4.43734476150946
aF8.20078880452632
aF10.457628001162893
aa(lp1233
F5.179705091309982
aF3.5922603105124398
aF10.62572197760404
aa(lp1234
F4.200906932466904
aF3.666146555616269
aF9.944580754840025
aa(lp1235
F9.796669542524917
aF25.994795346858034
aF8.569457492873081
aa(lp1236
F3.0705592377371853
aF3.7035779854011732
aF10.72243634383359
aa(lp1237
F-8.639367594811446
aF2.4458716154411837
aF2.0698645659352883
aa(lp1238
F14.962987463536061
aF23.307319509341266
aF5.141249248550164
aa(lp1239
F-4.209525725109739
aF18.397777404231682
aF15.329550250916707
aa(lp1240
F-3.7430756808808234
aF19.06822830666455
aF15.196831255911901
aa(lp1241
F-0.005067840901696142
aF17.166525459605527
aF-5.0852590381584095
aa(lp1242
F-0.22167204475717833
aF18.8845436561939
aF-6.586092744187119
aa(lp1243
F16.42315737746393
aF21.461151593799418
aF-0.0705954460236296
aa(lp1244
F-2.1736263483705818
aF19.16409234691931
aF-0.8026610199496398
aa(lp1245
F-2.9045131888150926
aF19.56633632620964
aF-1.3621039569580533
aa(lp1246
F-2.611376301323678
aF19.396313621489448
aF-1.0799782105929234
aa(lp1247
F14.5312578588221
aF23.58234299692611
aF5.981123857178749
aa(lp1248
F10.931114715502414
aF4.691395668764334
aF7.9578782355798445
aa(lp1249
F13.833656346612333
aF24.596782722958544
aF4.309081105904083
aa(lp1250
F-8.746958411024687
aF14.66196232958342
aF11.903562445767578
aa(lp1251
F5.317716477200065
aF2.2012135159753585
aF8.969858343643615
aa(lp1252
F-0.30566483090872926
aF20.973264149922535
aF-5.677137621855457
aa(lp1253
F-2.762524192319633
aF19.672022765845558
aF14.56274896768615
aa(lp1254
F4.073100149758468
aF6.829384908356469
aF9.330710731487104
aa(lp1255
F3.4201183971013744
aF5.534014478913587
aF9.81740564756484
aa(lp1256
F3.331783445446678
aF5.837967733617911
aF9.458818718001748
aa(lp1257
F3.339511705551757
aF5.538342193668636
aF8.988594098637105
aa(lp1258
F4.009434726210128
aF6.389795384115935
aF8.584110803935715
aa(lp1259
F-2.7519191413167174
aF12.565744790846864
aF-6.012439969555184
aa(lp1260
F-5.094039377997826
aF20.05298939478994
aF14.44859616907166
aa(lp1261
F-1.993466362661277
aF18.617299580595937
aF-1.7171169670544084
aa(lp1262
F8.996299089209959
aF26.11671450254205
aF9.08730885685476
aa(lp1263
F-10.142942920753368
aF7.966745329076645
aF9.007965085090653
aa(lp1264
F-10.482484995604871
aF6.869074474691718
aF7.090451427805266
aa(lp1265
F-3.261117889044487
aF21.02279538679013
aF13.511121128837637
aa(lp1266
F-3.0293435202089527
aF22.041655506921956
aF13.135858246125053
aa(lp1267
F3.9970277925256115
aF6.392341471523374
aF12.081369097163552
aa(lp1268
F15.154592210161933
aF9.853995088588615
aF-7.598508970647803
aa(lp1269
F14.984284990415828
aF11.069935546611722
aF-8.139568011421849
aa(lp1270
F-5.321664275085988
aF0.10359111024944138
aF-1.7189543177468072
aa(lp1271
F7.276183917060076
aF6.6308941035926825
aF12.169685070754774
aa(lp1272
F6.800459545292062
aF3.7753481821554313
aF6.942700688344703
aa(lp1273
F4.05726711771161
aF24.69840094996389
aF12.92353492734535
aa(lp1274
F-8.228505136451808
aF2.018985499222845
aF1.1692691934749422
aa(lp1275
F-4.63045325035815
aF-0.13706236739552136
aF-2.3257431702987805
aa(lp1276
F7.170551660752468
aF2.080133851409829
aF11.596785565351649
aa(lp1277
F-10.24497163473544
aF5.646142391831051
aF6.05519146858845
aa(lp1278
F6.732379547447533
aF25.26568971296498
aF11.711425061956195
aa(lp1279
F4.189622496133962
aF-0.10737602342372256
aF-6.830948661852075
aa(lp1280
F5.751638184377069
aF7.544076922221583
aF8.168555578909992
aa(lp1281
F11.375732336771708
aF25.47817406964932
aF7.7406394036964095
aa(lp1282
F-7.29918762645038
aF19.005664422395608
aF12.732726682982047
aa(lp1283
F11.613072686555991
aF4.832987502147387
aF8.082325500525824
aa(lp1284
F11.86752209740093
aF5.124315938891646
aF9.313824460292889
aa(lp1285
F-9.302019896997063
aF3.341588018482703
aF3.3215773743932515
aa(lp1286
F9.377338022687795
aF8.720657590195565
aF5.518658572242812
aa(lp1287
F17.332852654445038
aF20.0618801007372
aF0.3891106572860696
aa(lp1288
F6.948980862763904
aF1.078244106566925
aF-7.655961794360175
aa(lp1289
F10.81942681556882
aF3.7131192620552707
aF-8.21714855640344
aa(lp1290
F3.0042137636657733
aF16.48847062623103
aF-4.33601027077065
aa(lp1291
F3.4983402283580283
aF17.187406576967508
aF-6.079170771093508
aa(lp1292
F3.541199576879959
aF16.886646848683046
aF-5.535133840826699
aa(lp1293
F-7.307908117306172
aF18.727431628155475
aF11.671420568489413
aa(lp1294
F7.88897990980582
aF2.2982791693243474
aF10.179830492087731
aa(lp1295
F8.990239261027579
aF25.30179099476204
aF10.502392594720805
aa(lp1296
F16.900486604460543
aF20.261475774444566
aF-1.1923179652571914
aa(lp1297
F17.480426286796536
aF18.536497422939345
aF-2.019659896754306
aa(lp1298
F-6.229203519294101
aF0.6340021291068804
aF-1.2513570663211218
aa(lp1299
F-7.532332657715387
aF1.4943733977283864
aF0.0066873114524884265
aa(lp1300
F11.73078016087305
aF7.690919780544808
aF5.951396469291292
aa(lp1301
F-7.586956263382623
aF16.57627986872068
aF13.29506869807757
aa(lp1302
F16.731942871397692
aF21.355760153140327
aF1.9700889405877713
aa(lp1303
F-11.141851558971931
aF9.929201257951487
aF7.863351141578874
aa(lp1304
F-2.2109096542352704
aF11.415988325617427
aF-7.258551912063906
aa(lp1305
F6.691887916258475
aF4.577815341901085
aF12.225972428520135
aa(lp1306
F0.03771776851957198
aF15.49619390972837
aF-3.7612968108286418
aa(lp1307
F11.29604097339673
aF5.09466909654606
aF9.915658218164552
aa(lp1308
F3.1620645060674377
aF23.62650943544158
aF14.040254199108553
aa(lp1309
F2.874864201162872
aF24.89160486614303
aF12.723696976178442
aa(lp1310
F6.886448384026826
aF24.655454385595462
aF12.414588549928252
aa(lp1311
F-2.445429095585622
aF18.942149119713626
aF15.547159875341146
aa(lp1312
F-10.7756841202174
aF9.412230023294253
aF8.50074662441866
aa(lp1313
F6.742924967591604
aF5.77562584188855
aF6.822213029788843
aa(lp1314
F17.08759603564147
aF20.66771829932964
aF1.0842419990739651
aa(lp1315
F-2.903007356756052
aF22.71289018427364
aF3.2710249289430444
aa(lp1316
F-9.72959109642263
aF4.201637438154907
aF4.504028891990453
aa(lp1317
F-10.617209092292358
aF5.6804072941946275
aF4.255124437459911
aa(lp1318
F-2.4614286681594226
aF15.122153824315216
aF-4.00105128949516
aa(lp1319
F0.829673802081911
aF22.560892349443773
aF-2.1565630829937588
aa(lp1320
F16.18824080797105
aF8.526234537089842
aF-5.88225240474168
aa(lp1321
F15.556800208023711
aF8.389292538575468
aF-6.602496280935177
aa(lp1322
F-3.406617693212816
aF16.36274962035883
aF15.881310849063002
aa(lp1323
F6.434220338220379
aF8.735567181860018
aF14.690038996027358
aa(lp1324
F1.1221605767680598
aF7.994492320218387
aF13.244766254110912
aa(lp1325
F10.961345119647772
aF4.784743230246758
aF7.152490986632505
aa(lp1326
F5.986651617819096
aF25.004916790942254
aF12.256625508868826
aa(lp1327
F14.121522143110234
aF8.33087026881651
aF-8.209630928743193
aa(lp1328
F11.896102477944302
aF13.383553548221043
aF10.555819914798334
aa(lp1329
F12.507580768829243
aF13.173374391320905
aF9.963740300319246
aa(lp1330
F1.682768648531286
aF23.944897634477194
aF-0.95632124737277
aa(lp1331
F-10.379344008818794
aF5.540825109146338
aF5.2188325012331145
aa(lp1332
F12.732821327158527
aF4.553393060008676
aF7.588516015230012
aa(lp1333
F-2.044373053860971
aF14.268587843044983
aF-8.484606531149275
aa(lp1334
F2.3669060042740364
aF21.864980766313504
aF-3.5970940109418246
aa(lp1335
F-2.35238246273672
aF22.002469481678244
aF-4.34347234775833
aa(lp1336
F4.0243334232445775
aF7.923720367440331
aF9.338574256888904
aa(lp1337
F2.4632702548706864
aF18.37488611286066
aF-6.193023236309025
aa(lp1338
F5.251454605826616
aF3.0234068625362367
aF5.612418833592282
aa(lp1339
F-2.643864654154101
aF-0.6394520468751164
aF-3.6638268832873755
aa(lp1340
F-10.085480160741158
aF7.191179762832273
aF8.486276944201986
aa(lp1341
F-1.2181089274373258
aF1.4756910868578184
aF5.03239398536617
aa(lp1342
F-1.0963428291373165
aF0.8972277119583669
aF5.374090213480809
aa(lp1343
F4.993971719068849
aF1.3089102101894758
aF8.305359382630014
aa(lp1344
F-0.10733029574393929
aF14.702723879434018
aF-4.324802934901852
aa(lp1345
F7.2021874096623035
aF1.9750594171821165
aF6.366509429650165
aa(lp1346
F8.135511109252713
aF25.8560063528778
aF10.186368926094207
aa(lp1347
F16.901938831863408
aF20.739659657658702
aF-0.034982829722597295
aa(lp1348
F-2.1085418998129724
aF15.006197440223815
aF-3.859111895607314
aa(lp1349
F-2.756852125243751
aF15.752061017908531
aF-5.03302006683476
aa(lp1350
F-1.7946972315601883
aF14.900602592949202
aF-3.7613020785212483
aa(lp1351
F6.5619172162573705
aF24.18326315832507
aF13.08730978464525
aa(lp1352
F7.4668750663336825
aF5.598684506886011
aF10.879704122798067
aa(lp1353
F15.759384008262279
aF11.66389693652411
aF-7.695441938761511
aa(lp1354
F8.406119529493276
aF24.547294397308498
aF11.893787221862413
aa(lp1355
F2.8711069779557183
aF-0.1636657199990797
aF2.270609324918955
aa(lp1356
F3.5814240153175323
aF-0.21758415414418306
aF2.082360108062604
aa(lp1357
F1.261611675356749
aF21.40636349154227
aF-4.069917290482106
aa(lp1358
F-0.11683656069406456
aF15.97080063016252
aF-8.184011953420438
aa(lp1359
F11.688538301293022
aF5.7707882445244465
aF7.792341208214032
aa(lp1360
F5.482091715572388
aF25.789927811517604
aF11.371195528156846
aa(lp1361
F6.597438463737346
aF7.221880846320351
aF7.017432548302489
aa(lp1362
F4.214516072448239
aF8.135466796974601
aF7.827654411602406
aa(lp1363
F-4.238720294685428
aF14.761492676956319
aF-4.8460122328092226
aa(lp1364
F3.4285248727315425
aF22.304141778198325
aF-3.4251091443405195
aa(lp1365
F6.2449912996410974
aF25.98735947157925
aF10.850702701337793
aa(lp1366
F10.75730736823821
aF24.943926650256188
aF9.593265770666145
aa(lp1367
F17.54037258758603
aF17.531372894651962
aF-2.8966331251129294
aa(lp1368
F-3.290003252085853
aF20.562253340306935
aF-3.0389722446040537
aa(lp1369
F11.822558680250784
aF24.745230204728244
aF8.66765210139969
aa(lp1370
F-8.520946977063144
aF15.687907453374418
aF12.510876514987858
aa(lp1371
F-7.929010937417273
aF15.005211831648468
aF12.822831665268005
aa(lp1372
F-11.03068576769047
aF10.247988636506946
aF8.368567568680906
aa(lp1373
F3.654334683894234
aF24.95182466484866
aF12.653652999930724
aa(lp1374
F3.487317456854855
aF22.19979107866649
aF-4.006794617228883
aa(lp1375
F11.928310528434249
aF9.16059327557465
aF10.23287002620043
aa(lp1376
F5.575784058986428
aF0.40322950469460844
aF-7.286621823646552
aa(lp1377
F-2.3501011949980914
aF19.090249049419853
aF-1.0782937137439204
aa(lp1378
F10.515346207029848
aF9.42889154220559
aF11.213760350553857
aa(lp1379
F-4.349206299861744
aF16.251125023084878
aF16.020907469032153
aa(lp1380
F9.340223090894641
aF3.958731106266274
aF11.393807507341892
aa(lp1381
F4.953500140142278
aF9.772048404548153
aF13.107443133587632
aa(lp1382
F6.748491027656608
aF10.14252430113086
aF11.848365730985542
aa(lp1383
F6.50440040121245
aF10.360510220660858
aF11.331434366836586
aa(lp1384
F-10.966931147616231
aF8.593972146881148
aF7.45814762810268
aa(lp1385
F-3.3733259732708847
aF18.421509803696434
aF-1.1072314828159315
aa(lp1386
F-10.687374797060006
aF10.176505995531176
aF9.065309893100194
aa(lp1387
F0.032250224227243315
aF16.408639608532948
aF-2.849676406619713
aa(lp1388
F10.47904512743789
aF6.447618157060448
aF6.93359597146621
aa(lp1389
F16.711382219578983
aF11.015975781133392
aF-5.888858615177492
aa(lp1390
F-1.7669826251320297
aF1.4584096709343701
aF6.952900088272698
aa(lp1391
F-6.4924579495142165
aF17.05811911037321
aF15.135429532107214
aa(lp1392
F-5.594989606197951
aF16.164511325340914
aF14.125897303967399
aa(lp1393
F17.423379227036044
aF17.32775901210645
aF-3.3052367672554626
aa(lp1394
F-9.965238031645807
aF9.257527557860092
aF10.092514452241371
aa(lp1395
F-2.637060009430262
aF20.997573527471253
aF-0.1776740611172023
aa(lp1396
F-9.878322647817456
aF9.790226729853606
aF10.439808039344992
aa(lp1397
F17.653862510287006
aF17.97179881342572
aF-2.05109165169528
aa(lp1398
F-10.541333695736258
aF6.35213265161053
aF6.155942603810541
aa(lp1399
F-9.60946639915674
aF3.7829077123228365
aF2.9890605090713778
aa(lp1400
F10.578179904016109
aF4.355798960582264
aF7.1825247690365766
aa(lp1401
F11.895331215936181
aF4.780438128111417
aF-8.26262179445832
aa(lp1402
F4.014843420196603
aF24.603344834055093
aF-0.12866320441609935
aa(lp1403
F8.80415552735769
aF25.849964779571597
aF9.704556734061645
aa(lp1404
F9.826294305946346
aF5.354962517038354
aF6.3612842528923235
aa(lp1405
F9.704577430604443
aF5.670044334692648
aF6.176876699968968
aa(lp1406
F-2.1662690036209358
aF12.736685708714877
aF-8.679940920239362
aa(lp1407
F-0.39343109717105795
aF21.706709345197098
aF-3.124332372115983
aa(lp1408
F4.01588713195193
aF25.47657543404259
aF11.99119759699776
aa(lp1409
F11.160140926691913
aF25.177232904310006
aF8.687566506771995
aa(lp1410
F6.579484483053831
aF3.506836326211015
aF10.517822239448046
aa(lp1411
F6.6271112697989
aF3.3752433090658425
aF10.298182841561388
aa(lp1412
F-10.642243099991585
aF8.403738858625527
aF8.182682108668924
aa(lp1413
F-2.7368113552229687
aF18.40199143941282
aF-4.810175784714958
aa(lp1414
F-5.3663489307623315
aF17.551738862817068
aF-5.1639432444348605
aa(lp1415
F12.831542360639364
aF6.374466043560972
aF6.871406149324602
aa(lp1416
F-1.6760085913364609
aF19.433875775793897
aF0.2765820772499724
aa(lp1417
F16.604899906566306
aF12.413177311150827
aF-7.064373696061564
aa(lp1418
F17.21918104317606
aF11.589673916774032
aF-5.418673488052521
aa(lp1419
F-10.108909255739572
aF5.924910452895738
aF6.962387632220152
aa(lp1420
F1.8555847386157784
aF1.4722203321183904
aF7.3347266857104065
aa(lp1421
F2.28892615651422
aF1.3218142312867067
aF6.620762400480451
aa(lp1422
F2.748640121670331
aF1.1062594008395052
aF6.260289611139174
aa(lp1423
F-8.303973721957378
aF17.71390699052747
aF11.4072139690025
aa(lp1424
F16.463393933724838
aF21.807206417406384
aF2.4468847512111727
aa(lp1425
F15.585898809857145
aF22.924798429456214
aF1.5886453326682861
aa(lp1426
F-1.725672100637353
aF22.14334176039875
aF1.6551827744286143
aa(lp1427
F5.589897876678613
aF8.313634931825389
aF10.320143353615698
aa(lp1428
F7.635690877791296
aF24.442430255771175
aF12.38064324610956
aa(lp1429
F7.7079509633518395
aF7.250268321667873
aF14.198847958013658
aa(lp1430
F7.327205942606712
aF6.608845471769666
aF14.19594845548986
aa(lp1431
F6.933565391786042
aF6.87246361733673
aF13.40069769564451
aa(lp1432
F4.9158780888830105
aF24.383595124099664
aF13.176779474091123
aa(lp1433
F11.625765773878245
aF6.032642082729842
aF9.835798330054857
aa(lp1434
F11.379585817585602
aF5.995390090365348
aF10.00142625249387
aa(lp1435
F10.552644221442904
aF25.811135129478743
aF8.091989665952513
aa(lp1436
F12.148689080201141
aF24.948423711243937
aF7.822152832411851
aa(lp1437
F17.160952984668963
aF18.72887575154502
aF-2.580014523589492
aa(lp1438
F2.458762986177744
aF7.555852494488156
aF13.38335850449276
aa(lp1439
F1.862288208053109
aF6.725995997071073
aF12.796472558404849
aa(lp1440
F11.919860701576855
aF10.37926547165762
aF9.43211122204554
aa(lp1441
F11.05341408721236
aF4.034606929702202
aF-8.322047042564133
aa(lp1442
F-0.4698930110788146
aF20.427022428228767
aF-6.767876185815979
aa(lp1443
F2.9231312984822226
aF4.622859428868518
aF11.24312755731958
aa(lp1444
F9.902135344163778
aF25.214084452703958
aF9.889599323341198
aa(lp1445
F-6.303019567590228
aF19.026336622143113
aF14.069614562259396
aa(lp1446
F-6.0466711577794765
aF19.009366590530327
aF14.524159001069341
aa(lp1447
F13.091382901854708
aF7.2411653878163715
aF6.071224783725159
aa(lp1448
F16.185618034381644
aF22.02634953829942
aF0.7166548770969459
aa(lp1449
F1.7923596242188102
aF21.4838958625709
aF-1.814108453656687
aa(lp1450
F-1.828950070845831
aF-0.7437505986454591
aF-4.116683528527726
aa(lp1451
F12.421584808363978
aF25.093503245402967
aF6.831234960724178
aa(lp1452
F9.947365988413882
aF25.47922806914611
aF9.35629025579003
aa(lp1453
F-6.294437104436335
aF14.41159196589371
aF14.461005353349519
aa(lp1454
F5.139434315997745
aF23.71490503253573
aF13.853494573793892
aa(lp1455
F9.875868151105873
aF2.9832772778327463
aF-8.171426341008326
aa(lp1456
F6.901029305920943
aF25.749722252852234
aF10.935857730764253
aa(lp1457
F-10.859914007040022
aF7.698927041409477
aF6.874109825553391
aa(lp1458
F9.911389594498901
aF8.920472980522508
aF6.903404557376752
aa(lp1459
F-3.256085643743387
aF14.26545161677206
aF-4.2139305045298014
aa(lp1460
F10.566493658185566
aF9.114832442446138
aF11.129716808427201
aa(lp1461
F-6.692096695468973
aF15.200756442782797
aF13.96327134432703
aa(lp1462
F17.25782826087691
aF19.379790316993958
aF-1.4780213878024067
aa(lp1463
F-3.748059020468301
aF22.305624978905755
aF12.626401985380816
aa(lp1464
F11.196273992116813
aF5.2427251883058625
aF5.567402993267177
aa(lp1465
F11.012782741334519
aF4.8458626024885225
aF5.7690252507956625
aa(lp1466
F11.040531265687973
aF5.705675317355012
aF5.3153317713717705
aa(lp1467
F10.667995853179146
aF5.394513197223658
aF5.368430039133297
aa(lp1468
F-4.076461186043168
aF-0.33839388852516694
aF-2.6878427971293757
aa(lp1469
F4.04144565965889
aF4.325551668575899
aF10.479428634820513
aa(lp1470
F12.603284235191971
aF24.4012551660303
aF8.2229372340969
aa(lp1471
F0.4553106316391015
aF15.547812234240642
aF-7.791937836663558
aa(lp1472
F6.145683798325562
aF24.771657286103153
aF12.471573677224134
aa(lp1473
F-3.118972924974251
aF17.693721681115004
aF15.641443176864213
aa(lp1474
F-10.64831835014734
aF11.444374135506747
aF9.516187431956231
aa(lp1475
F12.850707595563133
aF8.715114811314544
aF8.431931331763879
aa(lp1476
F12.529604741335342
aF8.925079484591853
aF7.7144126436191085
aa(lp1477
F6.404938823468652
aF0.8225421727807355
aF-7.529612138774356
aa(lp1478
F11.522260309363405
aF4.374998572912484
aF-8.240784013936805
aa(lp1479
F11.096558738323925
aF6.974435112206501
aF5.962228343860419
aa(lp1480
F15.81177958493191
aF22.709196762743517
aF2.210385967171415
aa(lp1481
F-9.48006882154708
aF3.628802129347244
aF3.9139687982463025
aa(lp1482
F3.3067792322231466
aF23.55771044268206
aF-2.502067658934107
aa(lp1483
F12.655870997793864
aF11.72233638983479
aF8.306707360144033
aa(lp1484
F12.873971189235494
aF5.849765935734543
aF-8.174815624671032
aa(lp1485
F12.559903187093745
aF5.477157269713084
aF-8.199946067171686
aa(lp1486
F-5.169839960767453
aF21.160215101923505
aF13.397668341729856
aa(lp1487
F1.022867343985761
aF21.984364805594566
aF-4.1196549432463145
aasS'_dim'
p1488
I3
sb.